LX51 LINKER/LOCATER V4.66.93.0                                                          07/16/2024  15:05:47  PAGE 1


LX51 LINKER/LOCATER V4.66.93.0, INVOKED BY:
G:\KEIL_V5\C51\BIN\LX51.EXE .\Objects\STARTUP.obj, .\Objects\MAIN.obj, .\Objects\UART.obj, .\Objects\NARFL2401.obj, .\Ob
>> jects\duoji.obj, .\Objects\ASR.obj TO .\Objects\XPU PRINT (.\Listings\XPU.map)


CPU MODE:     8051 MODE
MEMORY MODEL: SMALL


INPUT MODULES INCLUDED:
  .\Objects\STARTUP.obj (?C_STARTUP)
         COMMENT TYPE 1: A51 / ASM51 Assembler
  .\Objects\MAIN.obj (MAIN)
         COMMENT TYPE 0: C51 V9.59.0.0
  .\Objects\UART.obj (UART)
         COMMENT TYPE 0: C51 V9.59.0.0
  .\Objects\NARFL2401.obj (NARFL2401)
         COMMENT TYPE 0: C51 V9.59.0.0
  .\Objects\duoji.obj (DUOJI)
         COMMENT TYPE 0: C51 V9.59.0.0
  .\Objects\ASR.obj (ASR)
         COMMENT TYPE 0: C51 V9.59.0.0
  G:\KEIL_V5\C51\LIB\C51S.LIB (?C_INIT)
         COMMENT TYPE 1: A51 / ASM51 Assembler
  G:\KEIL_V5\C51\LIB\C51S.LIB (?C?CLDPTR)
         COMMENT TYPE 1: A51 / ASM51 Assembler
  G:\KEIL_V5\C51\LIB\C51S.LIB (?C?CSTOPTR)
         COMMENT TYPE 1: A51 / ASM51 Assembler


ACTIVE MEMORY CLASSES OF MODULE:  .\Objects\XPU (?C_STARTUP)

BASE        START       END         USED      MEMORY CLASS
==========================================================
C:000000H   C:000000H   C:00FFFFH   00412DH   CODE
I:000000H   I:000000H   I:0000FFH   000001H   IDATA
C:000000H   C:000000H   C:00FFFFH   000036H   CONST
I:000000H   I:000000H   I:00007FH   000028H   DATA
X:000000H   X:000000H   X:00FFFFH   000016H   XDATA


MEMORY MAP OF MODULE:  .\Objects\XPU (?C_STARTUP)


START     STOP      LENGTH    ALIGN  RELOC    MEMORY CLASS   SEGMENT NAME
=========================================================================

* * * * * * * * * * *   D A T A   M E M O R Y   * * * * * * * * * * * * *
000000H   000007H   000008H   ---    AT..     DATA           "REG BANK 0"
000008H   000014H   00000DH   BYTE   UNIT     DATA           ?DT?NARFL2401
000015H   00001FH   00000BH   BYTE   UNIT     DATA           _DATA_GROUP_
000020H   000023H   000004H   BYTE   UNIT     DATA           ?DT?UART
000024H   000026H   000003H   BYTE   UNIT     DATA           ?DT?_SENDSTRINGBYUART3?UART
000027H   000027H   000001H   BYTE   UNIT     DATA           ?DT?DUOJI
000028H   000028H   000001H   BYTE   UNIT     IDATA          ?STACK

* * * * * * * * * * *   C O D E   M E M O R Y   * * * * * * * * * * * * *
000000H   000002H   000003H   ---    OFFS..   CODE           ?CO??C_STARTUP?0
000003H   000012H   000010H   BYTE   UNIT     CODE           ?PR?INIT_NRF24L01_MA?NARFL2401
000013H   000015H   000003H   BYTE   OFFS..   CODE           ?NARFL2401?00013
000016H   000022H   00000DH   BYTE   UNIT     CODE           ?PR?_SPI_RW?NARFL2401
000023H   000025H   000003H   BYTE   OFFS..   CODE           ?UART?00023
000026H   000042H   00001DH   BYTE   UNIT     CODE           ?PR?ACTION48?DUOJI
000043H   000045H   000003H   BYTE   OFFS..   CODE           ?UART?00043
000046H   00008AH   000045H   BYTE   UNIT     CODE           ?PR?UART2?UART
00008BH   00008DH   000003H   BYTE   OFFS..   CODE           ?UART?0008B
LX51 LINKER/LOCATER V4.66.93.0                                                        07/16/2024  15:05:47  PAGE 2


00008EH   000092H   000005H   ---    ---      **GAP**
000093H   000095H   000003H   BYTE   OFFS..   CODE           ?UART?00093
000096H   000378H   0002E3H   BYTE   UNIT     CODE           ?PR?PART_ONE?DUOJI
000379H   00060DH   000295H   BYTE   UNIT     CODE           ?PR?PART_THREE?DUOJI
00060EH   0006EDH   0000E0H   BYTE   UNIT     CODE           ?PR?START?DUOJI
0006EEH   0007CDH   0000E0H   BYTE   UNIT     CODE           ?PR?START2?DUOJI
0007CEH   0008ADH   0000E0H   BYTE   UNIT     CODE           ?PR?ACTION5?DUOJI
0008AEH   00098DH   0000E0H   BYTE   UNIT     CODE           ?PR?ACTION18?DUOJI
00098EH   000A6DH   0000E0H   BYTE   UNIT     CODE           ?PR?ACTION25?DUOJI
000A6EH   000B4DH   0000E0H   BYTE   UNIT     CODE           ?PR?ACTION26?DUOJI
000B4EH   000C2DH   0000E0H   BYTE   UNIT     CODE           ?PR?ACTION53?DUOJI
000C2EH   000D0DH   0000E0H   BYTE   UNIT     CODE           ?PR?ACTION73?DUOJI
000D0EH   000DE9H   0000DCH   BYTE   UNIT     CODE           ?PR?ACTION12_1?DUOJI
000DEAH   000EC1H   0000D8H   BYTE   UNIT     CODE           ?PR?ACTION24_4?DUOJI
000EC2H   000F99H   0000D8H   BYTE   UNIT     CODE           ?PR?ACTION39?DUOJI
000F9AH   001071H   0000D8H   BYTE   UNIT     CODE           ?PR?ACTION51?DUOJI
001072H   001149H   0000D8H   BYTE   UNIT     CODE           ?PR?ACTION52?DUOJI
00114AH   001221H   0000D8H   BYTE   UNIT     CODE           ?PR?ACTION55?DUOJI
001222H   0012F9H   0000D8H   BYTE   UNIT     CODE           ?PR?ACTION60?DUOJI
0012FAH   0013D1H   0000D8H   BYTE   UNIT     CODE           ?PR?ACTION63?DUOJI
0013D2H   0014A9H   0000D8H   BYTE   UNIT     CODE           ?PR?BIAOZHUN?DUOJI
0014AAH   001580H   0000D7H   BYTE   UNIT     CODE           ?PR?ACTION14?DUOJI
001581H   001653H   0000D3H   BYTE   UNIT     CODE           ?PR?ACTION79?DUOJI
001654H   001722H   0000CFH   BYTE   UNIT     CODE           ?PR?ACTION2_1?DUOJI
001723H   0017F1H   0000CFH   BYTE   UNIT     CODE           ?PR?ACTION3?DUOJI
0017F2H   0018BEH   0000CDH   BYTE   UNIT     CODE           ?PR?ACTION2?DUOJI
0018BFH   001989H   0000CBH   BYTE   UNIT     CODE           ?PR?ACTION24_3?DUOJI
00198AH   001A54H   0000CBH   BYTE   UNIT     CODE           ?PR?ACTION28?DUOJI
001A55H   001B1FH   0000CBH   BYTE   UNIT     CODE           ?PR?ACTION46?DUOJI
001B20H   001BEAH   0000CBH   BYTE   UNIT     CODE           ?PR?ACTION49?DUOJI
001BEBH   001CB5H   0000CBH   BYTE   UNIT     CODE           ?PR?ACTION56?DUOJI
001CB6H   001D80H   0000CBH   BYTE   UNIT     CODE           ?PR?ACTION57?DUOJI
001D81H   001E4BH   0000CBH   BYTE   UNIT     CODE           ?PR?ACTION58?DUOJI
001E4CH   001F16H   0000CBH   BYTE   UNIT     CODE           ?PR?ACTION59?DUOJI
001F17H   001FE1H   0000CBH   BYTE   UNIT     CODE           ?PR?BIAOZHUN1?DUOJI
001FE2H   0020ACH   0000CBH   BYTE   UNIT     CODE           ?PR?ACTION87?DUOJI
0020ADH   002175H   0000C9H   BYTE   UNIT     CODE           ?PR?ACTION43?DUOJI
002176H   00223BH   0000C6H   BYTE   UNIT     CODE           ?PR?ACTION75?DUOJI
00223CH   002301H   0000C6H   BYTE   UNIT     CODE           ?PR?ACTION78?DUOJI
002302H   0023C6H   0000C5H   BYTE   UNIT     CODE           ?PR?ACTION77?DUOJI
0023C7H   002488H   0000C2H   BYTE   UNIT     CODE           ?PR?ACTION13?DUOJI
002489H   002541H   0000B9H   BYTE   UNIT     CODE           ?PR?ACTION34?DUOJI
002542H   0025F5H   0000B4H   BYTE   UNIT     CODE           ?PR?PART_TWO?DUOJI
0025F6H   0026A6H   0000B1H   BYTE   UNIT     CODE           ?PR?ACTION27?DUOJI
0026A7H   002757H   0000B1H   BYTE   UNIT     CODE           ?PR?ACTION47?DUOJI
002758H   0027F3H   00009CH   BYTE   UNIT     CODE           ?PR?_A?DUOJI
0027F4H   002888H   000095H   BYTE   UNIT     CODE           ?PR?ACTION41?DUOJI
002889H   00291DH   000095H   BYTE   UNIT     CODE           ?PR?ACTION44?DUOJI
00291EH   0029AFH   000092H   BYTE   UNIT     CODE           ?PR?START1?DUOJI
0029B0H   002A3BH   00008CH   BYTE   UNIT     CODE           ?C_C51STARTUP
002A3CH   002AC3H   000088H   BYTE   UNIT     CODE           ?PR?HUMAN_COMPUTER?ASR
002AC4H   002B48H   000085H   BYTE   UNIT     CODE           ?PR?START3?DUOJI
002B49H   002BCDH   000085H   BYTE   UNIT     CODE           ?PR?READY?DUOJI
002BCEH   002C49H   00007CH   BYTE   UNIT     CODE           ?PR?HUMAN_COMPUTER2?ASR
002C4AH   002CB5H   00006CH   BYTE   UNIT     CODE           ?PR?MAIN?MAIN
002CB6H   002D20H   00006BH   BYTE   UNIT     CODE           ?PR?ACTION3_4?DUOJI
002D21H   002D8BH   00006BH   BYTE   UNIT     CODE           ?PR?ACTION29?DUOJI
002D8CH   002DE9H   00005EH   BYTE   UNIT     CODE           ?PR?ACTION6?DUOJI
002DEAH   002E47H   00005EH   BYTE   UNIT     CODE           ?PR?ACTION7?DUOJI
002E48H   002EA5H   00005EH   BYTE   UNIT     CODE           ?PR?ACTION8?DUOJI
002EA6H   002F03H   00005EH   BYTE   UNIT     CODE           ?PR?ACTION9?DUOJI
002F04H   002F61H   00005EH   BYTE   UNIT     CODE           ?PR?ACTION10?DUOJI
002F62H   002FBFH   00005EH   BYTE   UNIT     CODE           ?PR?ACTION11?DUOJI
002FC0H   00301DH   00005EH   BYTE   UNIT     CODE           ?PR?ACTION38?DUOJI
00301EH   003073H   000056H   BYTE   UNIT     CODE           ?PR?ACTION24_2?DUOJI
LX51 LINKER/LOCATER V4.66.93.0                                                        07/16/2024  15:05:47  PAGE 3


003074H   0030C9H   000056H   BYTE   UNIT     CODE           ?PR?ACTION37?DUOJI
0030CAH   00311FH   000056H   BYTE   UNIT     CODE           ?PR?ACTION68?DUOJI
003120H   003175H   000056H   BYTE   UNIT     CODE           ?PR?ACTION85?DUOJI
003176H   0031C6H   000051H   BYTE   UNIT     CODE           ?PR?ACTION1?DUOJI
0031C7H   003217H   000051H   BYTE   UNIT     CODE           ?PR?ACTION3_1?DUOJI
003218H   003268H   000051H   BYTE   UNIT     CODE           ?PR?ACTION3_2?DUOJI
003269H   0032B9H   000051H   BYTE   UNIT     CODE           ?PR?ACTION3_3?DUOJI
0032BAH   00330AH   000051H   BYTE   UNIT     CODE           ?PR?ACTION10_1?DUOJI
00330BH   00335BH   000051H   BYTE   UNIT     CODE           ?PR?ACTION10_2?DUOJI
00335CH   0033ACH   000051H   BYTE   UNIT     CODE           ?PR?ACTION11_1?DUOJI
0033ADH   0033FDH   000051H   BYTE   UNIT     CODE           ?PR?ACTION12?DUOJI
0033FEH   00344EH   000051H   BYTE   UNIT     CODE           ?PR?ACTION31?DUOJI
00344FH   00349FH   000051H   BYTE   UNIT     CODE           ?PR?ACTION35?DUOJI
0034A0H   0034F0H   000051H   BYTE   UNIT     CODE           ?PR?ACTION80?DUOJI
0034F1H   003541H   000051H   BYTE   UNIT     CODE           ?PR?ACTION83?DUOJI
003542H   00358EH   00004DH   BYTE   UNIT     CODE           ?PR?ACTION61?DUOJI
00358FH   0035D7H   000049H   BYTE   UNIT     CODE           ?PR?ACTION15?DUOJI
0035D8H   003620H   000049H   BYTE   UNIT     CODE           ?PR?ACTION24_1?DUOJI
003621H   003669H   000049H   BYTE   UNIT     CODE           ?PR?ACTION40?DUOJI
00366AH   0036B2H   000049H   BYTE   UNIT     CODE           ?PR?ACTION45?DUOJI
0036B3H   0036FBH   000049H   BYTE   UNIT     CODE           ?PR?ACTION50?DUOJI
0036FCH   003744H   000049H   BYTE   UNIT     CODE           ?PR?ACTION54?DUOJI
003745H   00378DH   000049H   BYTE   UNIT     CODE           ?PR?ACTION55_1?DUOJI
00378EH   0037D6H   000049H   BYTE   UNIT     CODE           ?PR?ACTION65?DUOJI
0037D7H   00381FH   000049H   BYTE   UNIT     CODE           ?PR?ACTION76?DUOJI
003820H   003868H   000049H   BYTE   UNIT     CODE           ?PR?ACTION82?DUOJI
003869H   0038B1H   000049H   BYTE   UNIT     CODE           ?PR?ACTION86?DUOJI
0038B2H   0038F6H   000045H   BYTE   UNIT     CODE           ?PR?UART3?UART
0038F7H   00393BH   000045H   BYTE   UNIT     CODE           ?PR?UART4?UART
00393CH   003978H   00003DH   BYTE   UNIT     CODE           ?PR?UART1234_INIT?UART
003979H   0039B5H   00003DH   BYTE   UNIT     CODE           ?PR?UART1?UART
0039B6H   0039F2H   00003DH   BYTE   UNIT     CODE           ?PR?SET_RXMODE_MA?NARFL2401
0039F3H   003A2DH   00003BH   BYTE   UNIT     CODE           ?PR?INT1_INT?NARFL2401
003A2EH   003A68H   00003BH   BYTE   UNIT     CODE           ?C?LIB_CODE
003A69H   003A9FH   000037H   BYTE   UNIT     CODE           ?PR?ACTION19?DUOJI
003AA0H   003AD6H   000037H   BYTE   UNIT     CODE           ?PR?ACTION20?DUOJI
003AD7H   003B0DH   000037H   BYTE   UNIT     CODE           ?PR?ACTION21?DUOJI
003B0EH   003B44H   000037H   BYTE   UNIT     CODE           ?PR?ACTION22?DUOJI
003B45H   003B7BH   000037H   BYTE   UNIT     CODE           ?PR?ACTION23?DUOJI
003B7CH   003BB2H   000037H   BYTE   UNIT     CODE           ?PR?ACTION24?DUOJI
003BB3H   003BE9H   000037H   BYTE   UNIT     CODE           ?PR?ACTION42?DUOJI
003BEAH   003C1CH   000033H   BYTE   UNIT     CODE           ?PR?_NRF24L01_MA_READ_BUF?NARFL2401
003C1DH   003C4EH   000032H   BYTE   UNIT     CODE           ?PR?_NRF24L01_MA_WRITE_BUF?NARFL2401
003C4FH   003C7BH   00002DH   BYTE   UNIT     CODE           ?PR?ACTION?DUOJI
003C7CH   003CA6H   00002BH   BYTE   UNIT     CODE           ?PR?_SENDSTRINGBYUART3?UART
003CA7H   003CD1H   00002BH   BYTE   UNIT     CODE           ?PR?_SENDSTRINGBYUART4?UART
003CD2H   003CFBH   00002AH   BYTE   UNIT     CODE           ?PR?ACTION1_1?DUOJI
003CFCH   003D25H   00002AH   BYTE   UNIT     CODE           ?PR?ACTION16?DUOJI
003D26H   003D4FH   00002AH   BYTE   UNIT     CODE           ?PR?ACTION17?DUOJI
003D50H   003D79H   00002AH   BYTE   UNIT     CODE           ?PR?ACTION30?DUOJI
003D7AH   003DA3H   00002AH   BYTE   UNIT     CODE           ?PR?ACTION36?DUOJI
003DA4H   003DCDH   00002AH   BYTE   UNIT     CODE           ?PR?ACTION71?DUOJI
003DCEH   003DF7H   00002AH   BYTE   UNIT     CODE           ?PR?DANCING?DUOJI
003DF8H   003E1EH   000027H   BYTE   UNIT     CODE           ?PR?_NRF24L01_RXPACKET_MA?NARFL2401
003E1FH   003E43H   000025H   BYTE   UNIT     CODE           ?PR?_SENDSTRINGBYUART1?UART
003E44H   003E65H   000022H   BYTE   UNIT     CODE           ?PR?ACTION62?DUOJI
003E66H   003E87H   000022H   BYTE   UNIT     CODE           ?PR?ACTION69?DUOJI
003E88H   003EA7H   000020H   BYTE   UNIT     CODE           ?PR?_DELAY_MS?UART
003EA8H   003EC6H   00001FH   BYTE   UNIT     CODE           ?PR?CLR_BUF2?UART
003EC7H   003EE5H   00001FH   BYTE   UNIT     CODE           ?PR?CLR_BUF3?UART
003EE6H   003F04H   00001FH   BYTE   UNIT     CODE           ?PR?CLR_BUF4?UART
003F05H   003F22H   00001EH   BYTE   UNIT     CODE           ?C_INITSEG
003F23H   003F3FH   00001DH   BYTE   UNIT     CODE           ?PR?ACTION66?DUOJI
003F40H   003F5CH   00001DH   BYTE   UNIT     CODE           ?PR?ACTION70?DUOJI
003F5DH   003F79H   00001DH   BYTE   UNIT     CODE           ?PR?ACTION72?DUOJI
LX51 LINKER/LOCATER V4.66.93.0                                                        07/16/2024  15:05:47  PAGE 4


003F7AH   003F96H   00001DH   BYTE   UNIT     CODE           ?PR?ACTION81?DUOJI
003F97H   003FB3H   00001DH   BYTE   UNIT     CODE           ?PR?ACTION84?DUOJI
003FB4H   003FCFH   00001CH   BYTE   UNIT     CODE           ?PR?ASR_INIT?ASR
003FD0H   003FEBH   00001CH   BYTE   UNIT     CODE           ?PR?ASR_INIT1?ASR
003FECH   004007H   00001CH   BYTE   UNIT     CODE           ?PR?ASR_INIT2?ASR
004008H   004023H   00001CH   BYTE   UNIT     CODE           ?PR?START_REPEATEDLY_SPEECH_RECOGNITION?ASR
004024H   00403FH   00001CH   BYTE   UNIT     CODE           ?PR?ASR_END?ASR
004040H   004059H   00001AH   BYTE   UNIT     CODE           ?PR?WAGH?UART
00405AH   004073H   00001AH   BYTE   UNIT     CODE           ?PR?RF_RECEDAT?NARFL2401
004074H   004088H   000015H   BYTE   UNIT     CODE           ?PR?ACTION67?DUOJI
004089H   00409CH   000014H   BYTE   UNIT     CODE           ?PR?ZHONGDUANYI?NARFL2401
00409DH   0040AFH   000013H   BYTE   UNIT     CODE           ?PR?_NRF24L01_MA_WRITE_REG?NARFL2401
0040B0H   0040BEH   00000FH   BYTE   UNIT     CODE           ?PR?DELAY2500MS?ASR
0040BFH   0040CDH   00000FH   BYTE   UNIT     CODE           ?PR?DELAY5000MS?ASR
0040CEH   0040DCH   00000FH   BYTE   UNIT     CODE           ?PR?DELAY6000MS?ASR
0040DDH   0040EBH   00000FH   BYTE   UNIT     CODE           ?PR?DELAY3500MS?ASR
0040ECH   0040F8H   00000DH   BYTE   UNIT     CODE           ?PR?_NRF24L01_MA_READ_REG?NARFL2401
0040F9H   004103H   00000BH   BYTE   UNIT     CODE           ?PR?_SENDDATABYUART2?UART
004104H   00410EH   00000BH   BYTE   UNIT     CODE           ?PR?_SENDDATABYUART3?UART
00410FH   004119H   00000BH   BYTE   UNIT     CODE           ?PR?_SENDDATABYUART4?UART
00411AH   004123H   00000AH   BYTE   UNIT     CODE           ?PR?INITSPI?NARFL2401
004124H   00412BH   000008H   BYTE   UNIT     CODE           ?PR?_SENDDATABYUART1?UART
00412CH   004131H   000006H   BYTE   UNIT     CODE           ?PR?DELAY10000MS?ASR
004132H   004154H   000023H   BYTE   UNIT     CONST          ?CO?MAIN
004155H   004167H   000013H   BYTE   UNIT     CONST          ?CO?ASR

* * * * * * * * * * *  X D A T A   M E M O R Y  * * * * * * * * * * * * *
000000H   000015H   000016H   BYTE   UNIT     XDATA          ?XD?UART



OVERLAY MAP OF MODULE:   .\Objects\XPU (?C_STARTUP)


FUNCTION/MODULE                               BIT_GROUP   DATA_GROUP 
--> CALLED FUNCTION/MODULE                   START  STOP  START  STOP
=====================================================================
?C_C51STARTUP                                ----- -----  ----- -----
  +--> MAIN/MAIN
  +--> ?C_INITSEG

MAIN/MAIN                                    ----- -----  ----- -----
  +--> WAGH/UART
  +--> UART1234_INIT/UART
  +--> INIT_NRF24L01_MA/NARFL2401
  +--> SET_RXMODE_MA/NARFL2401
  +--> ZHONGDUANYI/NARFL2401
  +--> START/DUOJI
  +--> _SENDSTRINGBYUART1/UART
  +--> DANCING/DUOJI
  +--> HUMAN_COMPUTER/ASR
  +--> HUMAN_COMPUTER2/ASR
  +--> _DELAY_MS/UART

WAGH/UART                                    ----- -----  ----- -----

UART1234_INIT/UART                           ----- -----  ----- -----

INIT_NRF24L01_MA/NARFL2401                   ----- -----  ----- -----
  +--> _DELAY_MS/UART
  +--> INITSPI/NARFL2401

_DELAY_MS/UART                               ----- -----  ----- -----

INITSPI/NARFL2401                            ----- -----  ----- -----
LX51 LINKER/LOCATER V4.66.93.0                                                        07/16/2024  15:05:47  PAGE 5



SET_RXMODE_MA/NARFL2401                      ----- -----  ----- -----
  +--> _NRF24L01_MA_WRITE_BUF/NARFL2401
  +--> _NRF24L01_MA_WRITE_REG/NARFL2401

_NRF24L01_MA_WRITE_BUF/NARFL2401             ----- -----  0015H 0019H
  +--> _SPI_RW/NARFL2401

_SPI_RW/NARFL2401                            ----- -----  ----- -----

_NRF24L01_MA_WRITE_REG/NARFL2401             ----- -----  ----- -----
  +--> _SPI_RW/NARFL2401

ZHONGDUANYI/NARFL2401                        ----- -----  ----- -----

START/DUOJI                                  ----- -----  ----- -----
  +--> _A/DUOJI
  +--> ACTION/DUOJI

_A/DUOJI                                     ----- -----  0015H 001AH
  +--> _SENDDATABYUART3/UART
  +--> _DELAY_MS/UART

_SENDDATABYUART3/UART                        ----- -----  ----- -----

ACTION/DUOJI                                 ----- -----  ----- -----
  +--> _SENDDATABYUART3/UART

_SENDSTRINGBYUART1/UART                      ----- -----  0015H 0017H
  +--> _SENDDATABYUART1/UART

_SENDDATABYUART1/UART                        ----- -----  ----- -----

DANCING/DUOJI                                ----- -----  ----- -----
  +--> PART_ONE/DUOJI
  +--> PART_TWO/DUOJI
  +--> PART_THREE/DUOJI

PART_ONE/DUOJI                               ----- -----  ----- -----
  +--> START/DUOJI
  +--> _DELAY_MS/UART
  +--> ACTION1/DUOJI
  +--> ACTION1_1/DUOJI
  +--> ACTION2/DUOJI
  +--> ACTION2_1/DUOJI
  +--> START2/DUOJI
  +--> ACTION3/DUOJI
  +--> ACTION3_1/DUOJI
  +--> ACTION3_2/DUOJI
  +--> ACTION3_3/DUOJI
  +--> ACTION3_4/DUOJI
  +--> START1/DUOJI
  +--> ACTION5/DUOJI
  +--> ACTION6/DUOJI
  +--> ACTION7/DUOJI
  +--> ACTION8/DUOJI
  +--> ACTION9/DUOJI
  +--> ACTION10/DUOJI
  +--> ACTION10_1/DUOJI
  +--> ACTION10_2/DUOJI
  +--> ACTION11/DUOJI
  +--> ACTION11_1/DUOJI
  +--> ACTION12/DUOJI
  +--> ACTION12_1/DUOJI
  +--> ACTION13/DUOJI
LX51 LINKER/LOCATER V4.66.93.0                                                        07/16/2024  15:05:47  PAGE 6


  +--> ACTION14/DUOJI
  +--> ACTION15/DUOJI
  +--> ACTION16/DUOJI
  +--> ACTION17/DUOJI
  +--> ACTION18/DUOJI
  +--> ACTION19/DUOJI
  +--> ACTION20/DUOJI
  +--> ACTION21/DUOJI
  +--> ACTION22/DUOJI
  +--> ACTION23/DUOJI
  +--> ACTION24/DUOJI
  +--> ACTION24_1/DUOJI
  +--> ACTION24_2/DUOJI
  +--> ACTION24_3/DUOJI
  +--> ACTION24_4/DUOJI
  +--> ACTION25/DUOJI
  +--> ACTION26/DUOJI
  +--> ACTION27/DUOJI
  +--> ACTION28/DUOJI
  +--> ACTION29/DUOJI
  +--> ACTION30/DUOJI
  +--> ACTION31/DUOJI
  +--> ACTION34/DUOJI
  +--> ACTION35/DUOJI
  +--> ACTION36/DUOJI
  +--> ACTION37/DUOJI
  +--> ACTION38/DUOJI
  +--> ACTION39/DUOJI
  +--> ACTION40/DUOJI
  +--> ACTION41/DUOJI
  +--> ACTION42/DUOJI
  +--> ACTION43/DUOJI
  +--> ACTION44/DUOJI
  +--> ACTION45/DUOJI

ACTION1/DUOJI                                ----- -----  ----- -----
  +--> _A/DUOJI
  +--> ACTION/DUOJI

ACTION1_1/DUOJI                              ----- -----  ----- -----
  +--> _A/DUOJI
  +--> ACTION/DUOJI

ACTION2/DUOJI                                ----- -----  ----- -----
  +--> _A/DUOJI
  +--> ACTION/DUOJI

ACTION2_1/DUOJI                              ----- -----  ----- -----
  +--> _A/DUOJI
  +--> ACTION/DUOJI

START2/DUOJI                                 ----- -----  ----- -----
  +--> _A/DUOJI
  +--> ACTION/DUOJI

ACTION3/DUOJI                                ----- -----  ----- -----
  +--> _A/DUOJI
  +--> ACTION/DUOJI

ACTION3_1/DUOJI                              ----- -----  ----- -----
  +--> _A/DUOJI
  +--> ACTION/DUOJI

ACTION3_2/DUOJI                              ----- -----  ----- -----
  +--> _A/DUOJI
LX51 LINKER/LOCATER V4.66.93.0                                                        07/16/2024  15:05:47  PAGE 7


  +--> ACTION/DUOJI

ACTION3_3/DUOJI                              ----- -----  ----- -----
  +--> _A/DUOJI
  +--> ACTION/DUOJI

ACTION3_4/DUOJI                              ----- -----  ----- -----
  +--> _A/DUOJI
  +--> ACTION/DUOJI

START1/DUOJI                                 ----- -----  ----- -----
  +--> _A/DUOJI
  +--> ACTION/DUOJI

ACTION5/DUOJI                                ----- -----  ----- -----
  +--> _A/DUOJI
  +--> ACTION/DUOJI

ACTION6/DUOJI                                ----- -----  ----- -----
  +--> _A/DUOJI
  +--> ACTION/DUOJI

ACTION7/DUOJI                                ----- -----  ----- -----
  +--> _A/DUOJI
  +--> ACTION/DUOJI

ACTION8/DUOJI                                ----- -----  ----- -----
  +--> _A/DUOJI
  +--> ACTION/DUOJI

ACTION9/DUOJI                                ----- -----  ----- -----
  +--> _A/DUOJI
  +--> ACTION/DUOJI

ACTION10/DUOJI                               ----- -----  ----- -----
  +--> _A/DUOJI
  +--> ACTION/DUOJI

ACTION10_1/DUOJI                             ----- -----  ----- -----
  +--> _A/DUOJI
  +--> ACTION/DUOJI

ACTION10_2/DUOJI                             ----- -----  ----- -----
  +--> _A/DUOJI
  +--> ACTION/DUOJI

ACTION11/DUOJI                               ----- -----  ----- -----
  +--> _A/DUOJI
  +--> ACTION/DUOJI

ACTION11_1/DUOJI                             ----- -----  ----- -----
  +--> _A/DUOJI
  +--> ACTION/DUOJI

ACTION12/DUOJI                               ----- -----  ----- -----
  +--> _A/DUOJI
  +--> ACTION/DUOJI

ACTION12_1/DUOJI                             ----- -----  ----- -----
  +--> _A/DUOJI
  +--> ACTION/DUOJI

ACTION13/DUOJI                               ----- -----  ----- -----
  +--> _A/DUOJI
  +--> ACTION/DUOJI
LX51 LINKER/LOCATER V4.66.93.0                                                        07/16/2024  15:05:47  PAGE 8



ACTION14/DUOJI                               ----- -----  ----- -----
  +--> _A/DUOJI
  +--> ACTION/DUOJI

ACTION15/DUOJI                               ----- -----  ----- -----
  +--> _A/DUOJI
  +--> ACTION/DUOJI

ACTION16/DUOJI                               ----- -----  ----- -----
  +--> _A/DUOJI
  +--> ACTION/DUOJI

ACTION17/DUOJI                               ----- -----  ----- -----
  +--> _A/DUOJI
  +--> ACTION/DUOJI

ACTION18/DUOJI                               ----- -----  ----- -----
  +--> _A/DUOJI
  +--> ACTION/DUOJI

ACTION19/DUOJI                               ----- -----  ----- -----
  +--> _A/DUOJI
  +--> ACTION/DUOJI

ACTION20/DUOJI                               ----- -----  ----- -----
  +--> _A/DUOJI
  +--> ACTION/DUOJI

ACTION21/DUOJI                               ----- -----  ----- -----
  +--> _A/DUOJI
  +--> ACTION/DUOJI

ACTION22/DUOJI                               ----- -----  ----- -----
  +--> _A/DUOJI
  +--> ACTION/DUOJI

ACTION23/DUOJI                               ----- -----  ----- -----
  +--> _A/DUOJI
  +--> ACTION/DUOJI

ACTION24/DUOJI                               ----- -----  ----- -----
  +--> _A/DUOJI
  +--> ACTION/DUOJI

ACTION24_1/DUOJI                             ----- -----  ----- -----
  +--> _A/DUOJI
  +--> ACTION/DUOJI

ACTION24_2/DUOJI                             ----- -----  ----- -----
  +--> _A/DUOJI
  +--> ACTION/DUOJI

ACTION24_3/DUOJI                             ----- -----  ----- -----
  +--> _A/DUOJI
  +--> ACTION/DUOJI

ACTION24_4/DUOJI                             ----- -----  ----- -----
  +--> _A/DUOJI
  +--> ACTION/DUOJI

ACTION25/DUOJI                               ----- -----  ----- -----
  +--> _A/DUOJI
  +--> ACTION/DUOJI

LX51 LINKER/LOCATER V4.66.93.0                                                        07/16/2024  15:05:47  PAGE 9


ACTION26/DUOJI                               ----- -----  ----- -----
  +--> _A/DUOJI
  +--> ACTION/DUOJI

ACTION27/DUOJI                               ----- -----  ----- -----
  +--> _A/DUOJI
  +--> ACTION/DUOJI

ACTION28/DUOJI                               ----- -----  ----- -----
  +--> _A/DUOJI
  +--> ACTION/DUOJI

ACTION29/DUOJI                               ----- -----  ----- -----
  +--> _A/DUOJI
  +--> ACTION/DUOJI

ACTION30/DUOJI                               ----- -----  ----- -----
  +--> _A/DUOJI
  +--> ACTION/DUOJI

ACTION31/DUOJI                               ----- -----  ----- -----
  +--> _A/DUOJI
  +--> ACTION/DUOJI

ACTION34/DUOJI                               ----- -----  ----- -----
  +--> _A/DUOJI
  +--> ACTION/DUOJI

ACTION35/DUOJI                               ----- -----  ----- -----
  +--> _A/DUOJI
  +--> ACTION/DUOJI

ACTION36/DUOJI                               ----- -----  ----- -----
  +--> _A/DUOJI
  +--> ACTION/DUOJI

ACTION37/DUOJI                               ----- -----  ----- -----
  +--> _A/DUOJI
  +--> ACTION/DUOJI

ACTION38/DUOJI                               ----- -----  ----- -----
  +--> _A/DUOJI
  +--> ACTION/DUOJI

ACTION39/DUOJI                               ----- -----  ----- -----
  +--> _A/DUOJI
  +--> ACTION/DUOJI

ACTION40/DUOJI                               ----- -----  ----- -----
  +--> _A/DUOJI
  +--> ACTION/DUOJI

ACTION41/DUOJI                               ----- -----  ----- -----
  +--> _A/DUOJI
  +--> ACTION/DUOJI

ACTION42/DUOJI                               ----- -----  ----- -----
  +--> _A/DUOJI
  +--> ACTION/DUOJI

ACTION43/DUOJI                               ----- -----  ----- -----
  +--> _A/DUOJI
  +--> ACTION/DUOJI

ACTION44/DUOJI                               ----- -----  ----- -----
LX51 LINKER/LOCATER V4.66.93.0                                                        07/16/2024  15:05:47  PAGE 10


  +--> _A/DUOJI
  +--> ACTION/DUOJI

ACTION45/DUOJI                               ----- -----  ----- -----
  +--> _A/DUOJI
  +--> ACTION/DUOJI

PART_TWO/DUOJI                               ----- -----  ----- -----
  +--> ACTION43/DUOJI
  +--> _DELAY_MS/UART
  +--> ACTION44/DUOJI
  +--> ACTION46/DUOJI
  +--> ACTION47/DUOJI
  +--> ACTION48/DUOJI
  +--> ACTION49/DUOJI
  +--> ACTION50/DUOJI
  +--> ACTION51/DUOJI
  +--> ACTION52/DUOJI
  +--> ACTION53/DUOJI
  +--> ACTION54/DUOJI
  +--> ACTION55/DUOJI
  +--> ACTION55_1/DUOJI
  +--> ACTION56/DUOJI
  +--> ACTION57/DUOJI
  +--> ACTION58/DUOJI
  +--> ACTION59/DUOJI
  +--> ACTION60/DUOJI

ACTION46/DUOJI                               ----- -----  ----- -----
  +--> _A/DUOJI
  +--> ACTION/DUOJI

ACTION47/DUOJI                               ----- -----  ----- -----
  +--> _A/DUOJI
  +--> ACTION/DUOJI

ACTION48/DUOJI                               ----- -----  ----- -----
  +--> _A/DUOJI
  +--> ACTION/DUOJI

ACTION49/DUOJI                               ----- -----  ----- -----
  +--> _A/DUOJI
  +--> ACTION/DUOJI

ACTION50/DUOJI                               ----- -----  ----- -----
  +--> _A/DUOJI
  +--> ACTION/DUOJI

ACTION51/DUOJI                               ----- -----  ----- -----
  +--> _A/DUOJI
  +--> ACTION/DUOJI

ACTION52/DUOJI                               ----- -----  ----- -----
  +--> _A/DUOJI
  +--> ACTION/DUOJI

ACTION53/DUOJI                               ----- -----  ----- -----
  +--> _A/DUOJI
  +--> ACTION/DUOJI

ACTION54/DUOJI                               ----- -----  ----- -----
  +--> _A/DUOJI
  +--> ACTION/DUOJI

ACTION55/DUOJI                               ----- -----  ----- -----
LX51 LINKER/LOCATER V4.66.93.0                                                        07/16/2024  15:05:47  PAGE 11


  +--> _A/DUOJI
  +--> ACTION/DUOJI

ACTION55_1/DUOJI                             ----- -----  ----- -----
  +--> _A/DUOJI
  +--> ACTION/DUOJI

ACTION56/DUOJI                               ----- -----  ----- -----
  +--> _A/DUOJI
  +--> ACTION/DUOJI

ACTION57/DUOJI                               ----- -----  ----- -----
  +--> _A/DUOJI
  +--> ACTION/DUOJI

ACTION58/DUOJI                               ----- -----  ----- -----
  +--> _A/DUOJI
  +--> ACTION/DUOJI

ACTION59/DUOJI                               ----- -----  ----- -----
  +--> _A/DUOJI
  +--> ACTION/DUOJI

ACTION60/DUOJI                               ----- -----  ----- -----
  +--> _A/DUOJI
  +--> ACTION/DUOJI

PART_THREE/DUOJI                             ----- -----  ----- -----
  +--> ACTION60/DUOJI
  +--> _DELAY_MS/UART
  +--> ACTION61/DUOJI
  +--> ACTION62/DUOJI
  +--> ACTION63/DUOJI
  +--> ACTION65/DUOJI
  +--> ACTION66/DUOJI
  +--> ACTION67/DUOJI
  +--> ACTION68/DUOJI
  +--> START/DUOJI
  +--> ACTION1/DUOJI
  +--> ACTION1_1/DUOJI
  +--> ACTION2/DUOJI
  +--> ACTION2_1/DUOJI
  +--> BIAOZHUN/DUOJI
  +--> ACTION69/DUOJI
  +--> ACTION70/DUOJI
  +--> ACTION71/DUOJI
  +--> ACTION72/DUOJI
  +--> ACTION73/DUOJI
  +--> READY/DUOJI
  +--> ACTION3/DUOJI
  +--> ACTION3_1/DUOJI
  +--> ACTION3_2/DUOJI
  +--> ACTION3_3/DUOJI
  +--> ACTION3_4/DUOJI
  +--> START3/DUOJI
  +--> ACTION75/DUOJI
  +--> ACTION76/DUOJI
  +--> ACTION77/DUOJI
  +--> ACTION78/DUOJI
  +--> ACTION79/DUOJI
  +--> ACTION80/DUOJI
  +--> ACTION81/DUOJI
  +--> ACTION82/DUOJI
  +--> ACTION83/DUOJI
  +--> ACTION84/DUOJI
LX51 LINKER/LOCATER V4.66.93.0                                                        07/16/2024  15:05:47  PAGE 12


  +--> ACTION85/DUOJI
  +--> ACTION86/DUOJI
  +--> ACTION87/DUOJI
  +--> BIAOZHUN1/DUOJI

ACTION61/DUOJI                               ----- -----  ----- -----
  +--> _A/DUOJI
  +--> ACTION/DUOJI

ACTION62/DUOJI                               ----- -----  ----- -----
  +--> _A/DUOJI
  +--> ACTION/DUOJI

ACTION63/DUOJI                               ----- -----  ----- -----
  +--> _A/DUOJI
  +--> ACTION/DUOJI

ACTION65/DUOJI                               ----- -----  ----- -----
  +--> _A/DUOJI
  +--> ACTION/DUOJI

ACTION66/DUOJI                               ----- -----  ----- -----
  +--> _A/DUOJI
  +--> ACTION/DUOJI

ACTION67/DUOJI                               ----- -----  ----- -----
  +--> _A/DUOJI
  +--> ACTION/DUOJI

ACTION68/DUOJI                               ----- -----  ----- -----
  +--> _A/DUOJI
  +--> ACTION/DUOJI

BIAOZHUN/DUOJI                               ----- -----  ----- -----
  +--> _A/DUOJI
  +--> ACTION/DUOJI

ACTION69/DUOJI                               ----- -----  ----- -----
  +--> _A/DUOJI
  +--> ACTION/DUOJI

ACTION70/DUOJI                               ----- -----  ----- -----
  +--> _A/DUOJI
  +--> ACTION/DUOJI

ACTION71/DUOJI                               ----- -----  ----- -----
  +--> _A/DUOJI
  +--> ACTION/DUOJI

ACTION72/DUOJI                               ----- -----  ----- -----
  +--> _A/DUOJI
  +--> ACTION/DUOJI

ACTION73/DUOJI                               ----- -----  ----- -----
  +--> _A/DUOJI
  +--> ACTION/DUOJI

READY/DUOJI                                  ----- -----  ----- -----
  +--> _A/DUOJI
  +--> ACTION/DUOJI

START3/DUOJI                                 ----- -----  ----- -----
  +--> _A/DUOJI
  +--> ACTION/DUOJI

LX51 LINKER/LOCATER V4.66.93.0                                                        07/16/2024  15:05:47  PAGE 13


ACTION75/DUOJI                               ----- -----  ----- -----
  +--> _A/DUOJI
  +--> ACTION/DUOJI

ACTION76/DUOJI                               ----- -----  ----- -----
  +--> _A/DUOJI
  +--> ACTION/DUOJI

ACTION77/DUOJI                               ----- -----  ----- -----
  +--> _A/DUOJI
  +--> ACTION/DUOJI

ACTION78/DUOJI                               ----- -----  ----- -----
  +--> _A/DUOJI
  +--> ACTION/DUOJI

ACTION79/DUOJI                               ----- -----  ----- -----
  +--> _A/DUOJI
  +--> ACTION/DUOJI

ACTION80/DUOJI                               ----- -----  ----- -----
  +--> _A/DUOJI
  +--> ACTION/DUOJI

ACTION81/DUOJI                               ----- -----  ----- -----
  +--> _A/DUOJI
  +--> ACTION/DUOJI

ACTION82/DUOJI                               ----- -----  ----- -----
  +--> _A/DUOJI
  +--> ACTION/DUOJI

ACTION83/DUOJI                               ----- -----  ----- -----
  +--> _A/DUOJI
  +--> ACTION/DUOJI

ACTION84/DUOJI                               ----- -----  ----- -----
  +--> _A/DUOJI
  +--> ACTION/DUOJI

ACTION85/DUOJI                               ----- -----  ----- -----
  +--> _A/DUOJI
  +--> ACTION/DUOJI

ACTION86/DUOJI                               ----- -----  ----- -----
  +--> _A/DUOJI
  +--> ACTION/DUOJI

ACTION87/DUOJI                               ----- -----  ----- -----
  +--> _A/DUOJI
  +--> ACTION/DUOJI

BIAOZHUN1/DUOJI                              ----- -----  ----- -----
  +--> _A/DUOJI
  +--> ACTION/DUOJI

HUMAN_COMPUTER/ASR                           ----- -----  ----- -----
  +--> ASR_INIT/ASR
  +--> ASR_INIT1/ASR
  +--> ASR_INIT2/ASR
  +--> START_REPEATEDLY_SPEECH_RECOGNITION/ASR
  +--> _DELAY_MS/UART
  +--> _SENDDATABYUART1/UART
  +--> DELAY2500MS/ASR
  +--> DELAY5000MS/ASR
LX51 LINKER/LOCATER V4.66.93.0                                                        07/16/2024  15:05:47  PAGE 14


  +--> DELAY10000MS/ASR
  +--> DELAY6000MS/ASR
  +--> DELAY3500MS/ASR
  +--> CLR_BUF2/UART
  +--> ASR_END/ASR

ASR_INIT/ASR                                 ----- -----  ----- -----
  +--> _SENDDATABYUART2/UART
  +--> _DELAY_MS/UART

_SENDDATABYUART2/UART                        ----- -----  ----- -----

ASR_INIT1/ASR                                ----- -----  ----- -----
  +--> _SENDDATABYUART2/UART
  +--> _DELAY_MS/UART

ASR_INIT2/ASR                                ----- -----  ----- -----
  +--> _SENDDATABYUART2/UART
  +--> _DELAY_MS/UART

START_REPEATEDLY_SPEECH_RECOGNITION/ASR      ----- -----  ----- -----
  +--> _SENDDATABYUART2/UART
  +--> _DELAY_MS/UART

DELAY2500MS/ASR                              ----- -----  ----- -----

DELAY5000MS/ASR                              ----- -----  ----- -----

DELAY10000MS/ASR                             ----- -----  ----- -----
  +--> DELAY5000MS/ASR

DELAY6000MS/ASR                              ----- -----  ----- -----

DELAY3500MS/ASR                              ----- -----  ----- -----

CLR_BUF2/UART                                ----- -----  ----- -----

ASR_END/ASR                                  ----- -----  ----- -----
  +--> _SENDDATABYUART2/UART
  +--> _DELAY_MS/UART

HUMAN_COMPUTER2/ASR                          ----- -----  ----- -----
  +--> _SENDDATABYUART4/UART
  +--> _SENDSTRINGBYUART1/UART
  +--> _DELAY_MS/UART
  +--> CLR_BUF4/UART
  +--> _SENDSTRINGBYUART4/UART

_SENDDATABYUART4/UART                        ----- -----  ----- -----

CLR_BUF4/UART                                ----- -----  ----- -----

_SENDSTRINGBYUART4/UART                      ----- -----  0015H 0017H
  +--> _SENDDATABYUART4/UART

?C_INITSEG                                   ----- -----  ----- -----

*** NEW ROOT *******************************

UART1/UART                                   ----- -----  ----- -----

*** NEW ROOT *******************************

UART2/UART                                   ----- -----  ----- -----

LX51 LINKER/LOCATER V4.66.93.0                                                        07/16/2024  15:05:47  PAGE 15


*** NEW ROOT *******************************

UART3/UART                                   ----- -----  ----- -----

*** NEW ROOT *******************************

UART4/UART                                   ----- -----  ----- -----

*** NEW ROOT *******************************

INT1_INT/NARFL2401                           ----- -----  ----- -----
  +--> RF_RECEDAT/NARFL2401

RF_RECEDAT/NARFL2401                         ----- -----  ----- -----
  +--> _NRF24L01_RXPACKET_MA/NARFL2401
  +--> _DELAY_MS/UART

_NRF24L01_RXPACKET_MA/NARFL2401              ----- -----  ----- -----
  +--> _NRF24L01_MA_READ_REG/NARFL2401
  +--> _NRF24L01_MA_WRITE_REG/NARFL2401
  +--> _NRF24L01_MA_READ_BUF/NARFL2401

_NRF24L01_MA_READ_REG/NARFL2401              ----- -----  ----- -----
  +--> _SPI_RW/NARFL2401

_NRF24L01_MA_READ_BUF/NARFL2401              ----- -----  001BH 001FH
  +--> _SPI_RW/NARFL2401



PUBLIC SYMBOLS OF MODULE:  .\Objects\XPU (?C_STARTUP)


      VALUE       CLASS    TYPE      PUBLIC SYMBOL NAME
      =================================================
      0000001BH   DATA     BYTE      ?_NRF24L01_MA_Read_Buf?BYTE
      00000015H   DATA     BYTE      ?_NRF24L01_MA_Write_Buf?BYTE
      01003A2EH   CODE     ---       ?C?CLDPTR
      00000000H   NUMBER   ---       ?C?CODESEG
      01003A47H   CODE     ---       ?C?CSTOPTR
      00000000H   NUMBER   ---       ?C?XDATASEG
      010029F7H   CODE     ---       ?C_START
      01000000H   CODE     ---       ?C_STARTUP
      01002762H   CODE     ---       _a
      01003E88H   CODE     ---       _delay_ms
      01003BEAH   CODE     ---       _NRF24L01_MA_Read_Buf
      010040ECH   CODE     ---       _NRF24L01_MA_Read_Reg
      01003C1DH   CODE     ---       _NRF24L01_MA_Write_Buf
      0100409DH   CODE     ---       _NRF24L01_MA_Write_Reg
      01003DF8H   CODE     ---       _NRF24L01_RxPacket_MA
      01004124H   CODE     ---       _SendDataByUart1
      010040F9H   CODE     ---       _SendDataByUart2
      01004104H   CODE     ---       _SendDataByUart3
      0100410FH   CODE     ---       _SendDataByUart4
      01003E1FH   CODE     ---       _SendStringByUart1
      01003C7CH   CODE     ---       _SendStringByUart3
      01003CA7H   CODE     ---       _SendStringByUart4
      01000016H   CODE     ---       _SPI_RW
*SFR* 000000D0H.6 DATA     BIT       AC
*SFR* 000000E0H   DATA     BYTE      ACC
*SFR* 000000E0H.0 DATA     BIT       ACC0
*SFR* 000000E0H.1 DATA     BIT       ACC1
*SFR* 000000E0H.2 DATA     BIT       ACC2
*SFR* 000000E0H.3 DATA     BIT       ACC3
*SFR* 000000E0H.4 DATA     BIT       ACC4
LX51 LINKER/LOCATER V4.66.93.0                                                        07/16/2024  15:05:47  PAGE 16


*SFR* 000000E0H.5 DATA     BIT       ACC5
*SFR* 000000E0H.6 DATA     BIT       ACC6
*SFR* 000000E0H.7 DATA     BIT       ACC7
      01003C4FH   CODE     ---       action
      01003176H   CODE     ---       action1
      01002F04H   CODE     ---       action10
      010032BAH   CODE     ---       action10_1
      0100330BH   CODE     ---       action10_2
      01002F62H   CODE     ---       action11
      0100335CH   CODE     ---       action11_1
      010033ADH   CODE     ---       action12
      01000D0EH   CODE     ---       action12_1
      010023C7H   CODE     ---       action13
      010014AAH   CODE     ---       action14
      0100358FH   CODE     ---       action15
      01003CFCH   CODE     ---       action16
      01003D26H   CODE     ---       action17
      010008AEH   CODE     ---       action18
      01003A69H   CODE     ---       action19
      01003CD2H   CODE     ---       action1_1
      010017F2H   CODE     ---       action2
      01003AA0H   CODE     ---       action20
      01003AD7H   CODE     ---       action21
      01003B0EH   CODE     ---       action22
      01003B45H   CODE     ---       action23
      01003B7CH   CODE     ---       action24
      010035D8H   CODE     ---       action24_1
      0100301EH   CODE     ---       action24_2
      010018BFH   CODE     ---       action24_3
      01000DEAH   CODE     ---       action24_4
      0100098EH   CODE     ---       action25
      01000A6EH   CODE     ---       action26
      010025F6H   CODE     ---       action27
      0100198AH   CODE     ---       action28
      01002D21H   CODE     ---       action29
      01001654H   CODE     ---       action2_1
      01001723H   CODE     ---       action3
      01003D50H   CODE     ---       action30
      010033FEH   CODE     ---       action31
      01002489H   CODE     ---       action34
      0100344FH   CODE     ---       action35
      01003D7AH   CODE     ---       action36
      01003074H   CODE     ---       action37
      01002FC0H   CODE     ---       action38
      01000EC2H   CODE     ---       action39
      010031C7H   CODE     ---       action3_1
      01003218H   CODE     ---       action3_2
      01003269H   CODE     ---       action3_3
      01002CB6H   CODE     ---       action3_4
      01003621H   CODE     ---       action40
      010027F4H   CODE     ---       action41
      01003BB3H   CODE     ---       action42
      010020ADH   CODE     ---       action43
      01002889H   CODE     ---       action44
      0100366AH   CODE     ---       action45
      01001A55H   CODE     ---       action46
      010026A7H   CODE     ---       action47
      01000026H   CODE     ---       action48
      01001B20H   CODE     ---       action49
      010007CEH   CODE     ---       action5
      010036B3H   CODE     ---       action50
      01000F9AH   CODE     ---       action51
      01001072H   CODE     ---       action52
      01000B4EH   CODE     ---       action53
      010036FCH   CODE     ---       action54
LX51 LINKER/LOCATER V4.66.93.0                                                        07/16/2024  15:05:47  PAGE 17


      0100114AH   CODE     ---       action55
      01003745H   CODE     ---       action55_1
      01001BEBH   CODE     ---       action56
      01001CB6H   CODE     ---       action57
      01001D81H   CODE     ---       action58
      01001E4CH   CODE     ---       action59
      01002D8CH   CODE     ---       action6
      01001222H   CODE     ---       action60
      01003542H   CODE     ---       action61
      01003E44H   CODE     ---       action62
      010012FAH   CODE     ---       action63
      0100378EH   CODE     ---       action65
      01003F23H   CODE     ---       action66
      01004074H   CODE     ---       action67
      010030CAH   CODE     ---       action68
      01003E66H   CODE     ---       action69
      01002DEAH   CODE     ---       action7
      01003F40H   CODE     ---       action70
      01003DA4H   CODE     ---       action71
      01003F5DH   CODE     ---       action72
      01000C2EH   CODE     ---       action73
      01002176H   CODE     ---       action75
      010037D7H   CODE     ---       action76
      01002302H   CODE     ---       action77
      0100223CH   CODE     ---       action78
      01001581H   CODE     ---       action79
      01002E48H   CODE     ---       action8
      010034A0H   CODE     ---       action80
      01003F7AH   CODE     ---       action81
      01003820H   CODE     ---       action82
      010034F1H   CODE     ---       action83
      01003F97H   CODE     ---       action84
      01003120H   CODE     ---       action85
      01003869H   CODE     ---       action86
      01001FE2H   CODE     ---       action87
      01002EA6H   CODE     ---       action9
*SFR* 000000BCH   DATA     BYTE      ADC_CONTR
*SFR* 000000BDH   DATA     BYTE      ADC_RES
*SFR* 000000BEH   DATA     BYTE      ADC_RESL
      01004024H   CODE     ---       ASR_end
      01003FB4H   CODE     ---       ASR_init
      01003FD0H   CODE     ---       ASR_init1
      01003FECH   CODE     ---       ASR_init2
*SFR* 0000008EH   DATA     BYTE      AUXR
*SFR* 000000A2H   DATA     BYTE      AUXR1
*SFR* 0000008FH   DATA     BYTE      AUXR2
*SFR* 000000F0H   DATA     BYTE      B
*SFR* 000000F0H.0 DATA     BIT       B0
*SFR* 000000F0H.1 DATA     BIT       B1
*SFR* 000000F0H.2 DATA     BIT       B2
*SFR* 000000F0H.3 DATA     BIT       B3
*SFR* 000000F0H.4 DATA     BIT       B4
*SFR* 000000F0H.5 DATA     BIT       B5
*SFR* 000000F0H.6 DATA     BIT       B6
*SFR* 000000F0H.7 DATA     BIT       B7
      010013D2H   CODE     ---       biaozhun
      01001F17H   CODE     ---       biaozhun1
*SFR* 000000A1H   DATA     BYTE      BUS_SPEED
*SFR* 000000FAH   DATA     BYTE      CCAP0H
*SFR* 000000EAH   DATA     BYTE      CCAP0L
*SFR* 000000FBH   DATA     BYTE      CCAP1H
*SFR* 000000EBH   DATA     BYTE      CCAP1L
*SFR* 000000FCH   DATA     BYTE      CCAP2H
*SFR* 000000ECH   DATA     BYTE      CCAP2L
*SFR* 000000DAH   DATA     BYTE      CCAPM0
LX51 LINKER/LOCATER V4.66.93.0                                                        07/16/2024  15:05:47  PAGE 18


*SFR* 000000DBH   DATA     BYTE      CCAPM1
*SFR* 000000DCH   DATA     BYTE      CCAPM2
*SFR* 000000D8H.0 DATA     BIT       CCF0
*SFR* 000000D8H.1 DATA     BIT       CCF1
*SFR* 000000D8H.2 DATA     BIT       CCF2
*SFR* 000000D8H   DATA     BYTE      CCON
*SFR* 00000090H.1 DATA     BIT       CCP0
*SFR* 00000090H.0 DATA     BIT       CCP1
*SFR* 000000B0H.7 DATA     BIT       CCP2
*SFR* 000000D8H.7 DATA     BIT       CF
*SFR* 000000F9H   DATA     BYTE      CH
*SFR* 000000E9H   DATA     BYTE      CL
*SFR* 00000097H   DATA     BYTE      CLK_DIV
*SFR* 000000B0H.5 DATA     BIT       CLKOUT0
*SFR* 000000B0H.4 DATA     BIT       CLKOUT1
      01003EA8H   CODE     ---       CLR_Buf2
      01003EC7H   CODE     ---       CLR_Buf3
      01003EE6H   CODE     ---       CLR_Buf4
      00000014H   DATA     BYTE      cmd
*SFR* 000000D9H   DATA     BYTE      CMOD
*SFR* 000000E6H   DATA     BYTE      CMPCR1
*SFR* 000000E7H   DATA     BYTE      CMPCR2
*SFR* 000000D8H.6 DATA     BIT       CR
*SFR* 000000D0H.7 DATA     BIT       CY
      01003DCEH   CODE     ---       dancing
      0100412CH   CODE     ---       Delay10000ms
      010040B0H   CODE     ---       Delay2500ms
      010040DDH   CODE     ---       Delay3500ms
      010040BFH   CODE     ---       Delay5000ms
      010040CEH   CODE     ---       Delay6000ms
*SFR* 00000083H   DATA     BYTE      DPH
*SFR* 00000082H   DATA     BYTE      DPL
*SFR* 000000A8H.7 DATA     BIT       EA
*SFR* 000000A8H.5 DATA     BIT       EADC
*SFR* 000000A8H.6 DATA     BIT       ELVD
*SFR* 000000B0H.4 DATA     BIT       en
*SFR* 000000A8H.4 DATA     BIT       ES
*SFR* 000000A8H.1 DATA     BIT       ET0
*SFR* 000000A8H.3 DATA     BIT       ET1
*SFR* 000000A8H.0 DATA     BIT       EX0
*SFR* 000000A8H.2 DATA     BIT       EX1
*SFR* 000000D0H.5 DATA     BIT       F0
*SFR* 000000D0H.1 DATA     BIT       F1
      01002A3CH   CODE     ---       human_computer
      01002BCEH   CODE     ---       human_computer2
      00000020H   DATA     BYTE      i
*SFR* 000000C3H   DATA     BYTE      IAP_ADDRH
*SFR* 000000C4H   DATA     BYTE      IAP_ADDRL
*SFR* 000000C5H   DATA     BYTE      IAP_CMD
*SFR* 000000C7H   DATA     BYTE      IAP_CONTR
*SFR* 000000C2H   DATA     BYTE      IAP_DATA
*SFR* 000000C6H   DATA     BYTE      IAP_TRIG
*SFR* 000000A8H   DATA     BYTE      IE
*SFR* 00000088H.1 DATA     BIT       IE0
*SFR* 00000088H.3 DATA     BIT       IE1
*SFR* 000000AFH   DATA     BYTE      IE2
      01000003H   CODE     ---       Init_NRF24L01_MA
      0100411AH   CODE     ---       InitSPI
*SFR* 000000B0H.2 DATA     BIT       INT0
*SFR* 000000B0H.3 DATA     BIT       INT1
      010039F3H   CODE     ---       INT1_int
*SFR* 0000008FH   DATA     BYTE      INT_CLKO
*SFR* 000000B8H   DATA     BYTE      IP
*SFR* 000000B5H   DATA     BYTE      IP2
*SFR* 000000B7H   DATA     BYTE      IPH
LX51 LINKER/LOCATER V4.66.93.0                                                        07/16/2024  15:05:47  PAGE 19


*SFR* 000000B6H   DATA     BYTE      IPH2
*SFR* 000000B0H.3 DATA     BIT       IRQ
*SFR* 000000C3H   DATA     BYTE      ISP_ADDRH
*SFR* 000000C4H   DATA     BYTE      ISP_ADDRL
*SFR* 000000C5H   DATA     BYTE      ISP_CMD
*SFR* 000000C7H   DATA     BYTE      ISP_CONTR
*SFR* 000000C2H   DATA     BYTE      ISP_DATA
*SFR* 000000C6H   DATA     BYTE      ISP_TRIG
*SFR* 00000088H.0 DATA     BIT       IT0
*SFR* 00000088H.2 DATA     BIT       IT1
      00000021H   DATA     BYTE      j
*SFR* 00000080H.5 DATA     BIT       led_r
      00000022H   DATA     BYTE      m
      01002C4AH   CODE     ---       main
      00000023H   DATA     BYTE      n
*SFR* 00000080H.4 DATA     BIT       OE1
*SFR* 00000080H.5 DATA     BIT       OE2
*SFR* 000000D0H.2 DATA     BIT       OV
*SFR* 000000D0H.0 DATA     BIT       P
*SFR* 00000080H   DATA     BYTE      P0
*SFR* 00000080H.0 DATA     BIT       P00
*SFR* 00000080H.1 DATA     BIT       P01
*SFR* 00000080H.2 DATA     BIT       P02
*SFR* 00000080H.3 DATA     BIT       P03
*SFR* 00000080H.4 DATA     BIT       P04
*SFR* 00000080H.5 DATA     BIT       P05
*SFR* 00000080H.6 DATA     BIT       P06
*SFR* 00000080H.7 DATA     BIT       P07
*SFR* 00000094H   DATA     BYTE      P0M0
*SFR* 00000093H   DATA     BYTE      P0M1
*SFR* 00000090H   DATA     BYTE      P1
*SFR* 00000090H.0 DATA     BIT       P10
*SFR* 00000090H.1 DATA     BIT       P11
*SFR* 00000090H.2 DATA     BIT       P12
*SFR* 00000090H.3 DATA     BIT       P13
*SFR* 00000090H.4 DATA     BIT       P14
*SFR* 00000090H.5 DATA     BIT       P15
*SFR* 00000090H.6 DATA     BIT       P16
*SFR* 00000090H.7 DATA     BIT       P17
*SFR* 0000009DH   DATA     BYTE      P1ASF
*SFR* 00000092H   DATA     BYTE      P1M0
*SFR* 00000091H   DATA     BYTE      P1M1
*SFR* 000000A0H   DATA     BYTE      P2
*SFR* 000000A0H.0 DATA     BIT       P20
*SFR* 000000A0H.1 DATA     BIT       P21
*SFR* 000000A0H.2 DATA     BIT       P22
*SFR* 000000A0H.3 DATA     BIT       P23
*SFR* 000000A0H.4 DATA     BIT       P24
*SFR* 000000A0H.5 DATA     BIT       P25
*SFR* 000000A0H.6 DATA     BIT       P26
*SFR* 000000A0H.7 DATA     BIT       P27
*SFR* 00000096H   DATA     BYTE      P2M0
*SFR* 00000095H   DATA     BYTE      P2M1
*SFR* 000000B0H   DATA     BYTE      P3
*SFR* 000000B0H.0 DATA     BIT       P30
*SFR* 000000B0H.1 DATA     BIT       P31
*SFR* 000000B0H.2 DATA     BIT       P32
*SFR* 000000B0H.3 DATA     BIT       P33
*SFR* 000000B0H.4 DATA     BIT       P34
*SFR* 000000B0H.5 DATA     BIT       P35
*SFR* 000000B0H.6 DATA     BIT       P36
*SFR* 000000B0H.7 DATA     BIT       P37
*SFR* 000000B2H   DATA     BYTE      P3M0
*SFR* 000000B1H   DATA     BYTE      P3M1
*SFR* 000000C0H   DATA     BYTE      P4
LX51 LINKER/LOCATER V4.66.93.0                                                        07/16/2024  15:05:47  PAGE 20


*SFR* 000000C0H.0 DATA     BIT       P40
*SFR* 000000C0H.1 DATA     BIT       P41
*SFR* 000000C0H.2 DATA     BIT       P42
*SFR* 000000C0H.3 DATA     BIT       P43
*SFR* 000000C0H.4 DATA     BIT       P44
*SFR* 000000C0H.5 DATA     BIT       P45
*SFR* 000000C0H.6 DATA     BIT       P46
*SFR* 000000C0H.7 DATA     BIT       P47
*SFR* 000000B4H   DATA     BYTE      P4M0
*SFR* 000000B3H   DATA     BYTE      P4M1
*SFR* 000000C8H   DATA     BYTE      P5
*SFR* 000000C8H.0 DATA     BIT       P50
*SFR* 000000C8H.1 DATA     BIT       P51
*SFR* 000000C8H.2 DATA     BIT       P52
*SFR* 000000C8H.3 DATA     BIT       P53
*SFR* 000000C8H.4 DATA     BIT       P54
*SFR* 000000C8H.5 DATA     BIT       P55
*SFR* 000000C8H.6 DATA     BIT       P56
*SFR* 000000C8H.7 DATA     BIT       P57
*SFR* 000000CAH   DATA     BYTE      P5M0
*SFR* 000000C9H   DATA     BYTE      P5M1
*SFR* 000000E8H   DATA     BYTE      P6
*SFR* 000000E8H.0 DATA     BIT       P60
*SFR* 000000E8H.1 DATA     BIT       P61
*SFR* 000000E8H.2 DATA     BIT       P62
*SFR* 000000E8H.3 DATA     BIT       P63
*SFR* 000000E8H.4 DATA     BIT       P64
*SFR* 000000E8H.5 DATA     BIT       P65
*SFR* 000000E8H.6 DATA     BIT       P66
*SFR* 000000E8H.7 DATA     BIT       P67
*SFR* 000000CCH   DATA     BYTE      P6M0
*SFR* 000000CBH   DATA     BYTE      P6M1
*SFR* 000000F8H   DATA     BYTE      P7
*SFR* 000000F8H.0 DATA     BIT       P70
*SFR* 000000F8H.1 DATA     BIT       P71
*SFR* 000000F8H.2 DATA     BIT       P72
*SFR* 000000F8H.3 DATA     BIT       P73
*SFR* 000000F8H.4 DATA     BIT       P74
*SFR* 000000F8H.5 DATA     BIT       P75
*SFR* 000000F8H.6 DATA     BIT       P76
*SFR* 000000F8H.7 DATA     BIT       P77
*SFR* 000000E2H   DATA     BYTE      P7M0
*SFR* 000000E1H   DATA     BYTE      P7M1
*SFR* 000000A2H   DATA     BYTE      P_SW1
*SFR* 000000BAH   DATA     BYTE      P_SW2
*SFR* 000000B8H.5 DATA     BIT       PADC
      01000096H   CODE     ---       part_one
      01000379H   CODE     ---       part_three
      01002542H   CODE     ---       part_two
*SFR* 000000F2H   DATA     BYTE      PCA_PWM0
*SFR* 000000F3H   DATA     BYTE      PCA_PWM1
*SFR* 000000F4H   DATA     BYTE      PCA_PWM2
*SFR* 00000087H   DATA     BYTE      PCON
*SFR* 00000097H   DATA     BYTE      PCON2
*SFR* 000000B8H.6 DATA     BIT       PLVD
*SFR* 000000B8H.7 DATA     BIT       PPCA
*SFR* 000000B8H.4 DATA     BIT       PS
*SFR* 000000D0H   DATA     BYTE      PSW
*SFR* 000000B8H.1 DATA     BIT       PT0
*SFR* 000000B8H.3 DATA     BIT       PT1
*SFR* 000000F1H   DATA     BYTE      PWMCFG
*SFR* 000000F5H   DATA     BYTE      PWMCR
*SFR* 000000F7H   DATA     BYTE      PWMFDCR
*SFR* 000000F6H   DATA     BYTE      PWMIF
*SFR* 000000B8H.0 DATA     BIT       PX0
LX51 LINKER/LOCATER V4.66.93.0                                                        07/16/2024  15:05:47  PAGE 21


*SFR* 000000B8H.2 DATA     BIT       PX1
*SFR* 00000098H.2 DATA     BIT       RB8
*SFR* 000000B0H.7 DATA     BIT       RD
      01002B49H   CODE     ---       ready
      02000000H   XDATA    ---       Rec_Buf1
      02000004H   XDATA    ---       Rec_Buf2
      02000007H   XDATA    ---       Rec_Buf3
      02000015H   XDATA    ---       Rec_Buf4
*SFR* 00000098H.4 DATA     BIT       REN
      0100405AH   CODE     ---       RF_ReceDat
*SFR* 00000098H.0 DATA     BIT       RI
*SFR* 000000D6H   DATA     BYTE      RL_T2H
*SFR* 000000D7H   DATA     BYTE      RL_T2L
*SFR* 000000D4H   DATA     BYTE      RL_T3H
*SFR* 000000D5H   DATA     BYTE      RL_T3L
*SFR* 000000D2H   DATA     BYTE      RL_T4H
*SFR* 000000D3H   DATA     BYTE      RL_T4L
*SFR* 0000008CH   DATA     BYTE      RL_TH0
*SFR* 0000008DH   DATA     BYTE      RL_TH1
*SFR* 0000008AH   DATA     BYTE      RL_TL0
*SFR* 0000008BH   DATA     BYTE      RL_TL1
*SFR* 000000D0H.3 DATA     BIT       RS0
*SFR* 000000D0H.4 DATA     BIT       RS1
      00000008H   DATA     ---       RX_ADDRESS
*SFR* 000000B0H.0 DATA     BIT       RXD
*SFR* 00000090H.0 DATA     BIT       RXD2
      00000012H   DATA     ---       RxPayload
*SFR* 0000009BH   DATA     BYTE      S2BUF
*SFR* 0000009AH   DATA     BYTE      S2CON
*SFR* 000000ADH   DATA     BYTE      S3BUF
*SFR* 000000ACH   DATA     BYTE      S3CON
*SFR* 00000085H   DATA     BYTE      S4BUF
*SFR* 00000084H   DATA     BYTE      S4CON
*SFR* 000000A9H   DATA     BYTE      SADDR
*SFR* 000000B9H   DATA     BYTE      SADEN
*SFR* 00000099H   DATA     BYTE      SBUF
*SFR* 00000098H   DATA     BYTE      SCON
      010039B6H   CODE     ---       Set_RxMode_MA
*SFR* 00000098H.7 DATA     BIT       SM0
*SFR* 00000098H.6 DATA     BIT       SM1
*SFR* 00000098H.5 DATA     BIT       SM2
*SFR* 00000081H   DATA     BYTE      SP
*SFR* 000000CEH   DATA     BYTE      SPCTL
*SFR* 000000CFH   DATA     BYTE      SPDAT
*SFR* 00000090H.2 DATA     BIT       SPI_CS
*SFR* 00000090H.4 DATA     BIT       SPI_MISO
*SFR* 000000A0H.2 DATA     BIT       SPI_MISO_2
*SFR* 000000C0H.1 DATA     BIT       SPI_MISO_3
*SFR* 00000090H.3 DATA     BIT       SPI_MOSI
*SFR* 000000A0H.3 DATA     BIT       SPI_MOSI_2
*SFR* 000000C0H.0 DATA     BIT       SPI_MOSI_3
*SFR* 00000090H.5 DATA     BIT       SPI_SCLK
*SFR* 000000A0H.1 DATA     BIT       SPI_SCLK_2
*SFR* 000000C0H.3 DATA     BIT       SPI_SCLK_3
*SFR* 00000090H.2 DATA     BIT       SPI_SS
*SFR* 000000A0H.4 DATA     BIT       SPI_SS_2
*SFR* 000000C8H.4 DATA     BIT       SPI_SS_3
*SFR* 000000CDH   DATA     BYTE      SPSTAT
      0100060EH   CODE     ---       start
      0100291EH   CODE     ---       start1
      010006EEH   CODE     ---       start2
      01002AC4H   CODE     ---       start3
      01004008H   CODE     ---       start_repeatedly_Speech_Recognition
*SFR* 000000B0H.4 DATA     BIT       T0
*SFR* 000000B0H.5 DATA     BIT       T1
LX51 LINKER/LOCATER V4.66.93.0                                                        07/16/2024  15:05:47  PAGE 22


*SFR* 000000D6H   DATA     BYTE      T2H
*SFR* 000000D7H   DATA     BYTE      T2L
*SFR* 000000D4H   DATA     BYTE      T3H
*SFR* 000000D5H   DATA     BYTE      T3L
*SFR* 000000D1H   DATA     BYTE      T3T4M
*SFR* 000000D2H   DATA     BYTE      T4H
*SFR* 000000D3H   DATA     BYTE      T4L
*SFR* 000000D1H   DATA     BYTE      T4T3M
*SFR* 00000098H.3 DATA     BIT       TB8
*SFR* 00000088H   DATA     BYTE      TCON
*SFR* 00000088H.5 DATA     BIT       TF0
*SFR* 00000088H.7 DATA     BIT       TF1
*SFR* 0000008CH   DATA     BYTE      TH0
*SFR* 0000008DH   DATA     BYTE      TH1
*SFR* 000000D6H   DATA     BYTE      TH2
*SFR* 000000D4H   DATA     BYTE      TH3
*SFR* 000000D2H   DATA     BYTE      TH4
*SFR* 00000098H.1 DATA     BIT       TI
*SFR* 0000008AH   DATA     BYTE      TL0
*SFR* 0000008BH   DATA     BYTE      TL1
*SFR* 000000D7H   DATA     BYTE      TL2
*SFR* 000000D5H   DATA     BYTE      TL3
*SFR* 000000D3H   DATA     BYTE      TL4
*SFR* 00000089H   DATA     BYTE      TMOD
*SFR* 00000088H.4 DATA     BIT       TR0
*SFR* 00000088H.6 DATA     BIT       TR1
      0000000DH   DATA     ---       TX_ADDRESS
*SFR* 000000B0H.1 DATA     BIT       TXD
*SFR* 00000090H.1 DATA     BIT       TXD2
      00000013H   DATA     ---       TxPayload
      01003979H   CODE     ---       Uart1
      0100393CH   CODE     ---       Uart1234_Init
      01000046H   CODE     ---       Uart2
      010038B2H   CODE     ---       Uart3
      010038F7H   CODE     ---       Uart4
      01004040H   CODE     ---       wagh
*SFR* 0000008FH   DATA     BYTE      WAKE_CLKO
*SFR* 000000C1H   DATA     BYTE      WDT_CONTR
*SFR* 000000ABH   DATA     BYTE      WKTCH
*SFR* 000000AAH   DATA     BYTE      WKTCL
*SFR* 000000B0H.6 DATA     BIT       WR
      01004089H   CODE     ---       zhongduanyi



SYMBOL TABLE OF MODULE:  .\Objects\XPU (?C_STARTUP)

      VALUE       REP       CLASS    TYPE      SYMBOL NAME
      ====================================================
      ---         MODULE    ---      ---       ?C_STARTUP
      01000000H   PUBLIC    CODE     ---       ?C_STARTUP
      000000E0H   SYMBOL    DATA     ---       ACC
      000000F0H   SYMBOL    DATA     ---       B
      00000083H   SYMBOL    DATA     ---       DPH
      00000082H   SYMBOL    DATA     ---       DPL
      00000000H   SYMBOL    NUMBER   ---       IBPSTACK
      00000100H   SYMBOL    NUMBER   ---       IBPSTACKTOP
      00000080H   SYMBOL    NUMBER   ---       IDATALEN
      010029B3H   SYMBOL    CODE     ---       IDATALOOP
      00000000H   SYMBOL    NUMBER   ---       PBPSTACK
      00000100H   SYMBOL    NUMBER   ---       PBPSTACKTOP
      00000000H   SYMBOL    NUMBER   ---       PDATALEN
      00000000H   SYMBOL    NUMBER   ---       PDATASTART
      00000000H   SYMBOL    NUMBER   ---       PPAGE
      00000000H   SYMBOL    NUMBER   ---       PPAGEENABLE
LX51 LINKER/LOCATER V4.66.93.0                                                        07/16/2024  15:05:47  PAGE 23


      000000A0H   SYMBOL    DATA     ---       PPAGE_SFR
      00000081H   SYMBOL    DATA     ---       SP
      010029B0H   SYMBOL    CODE     ---       STARTUP1
      00000000H   SYMBOL    NUMBER   ---       XBPSTACK
      00000000H   SYMBOL    NUMBER   ---       XBPSTACKTOP
      00000000H   SYMBOL    NUMBER   ---       XDATALEN
      00000000H   SYMBOL    NUMBER   ---       XDATASTART
      01000000H   LINE      CODE     ---       #126
      010029B0H   LINE      CODE     ---       #133
      010029B2H   LINE      CODE     ---       #134
      010029B3H   LINE      CODE     ---       #135
      010029B4H   LINE      CODE     ---       #136
      010029B6H   LINE      CODE     ---       #185
      010029B9H   LINE      CODE     ---       #196

      ---         MODULE    ---      ---       MAIN
      01002C4AH   PUBLIC    CODE     ---       main
      000000D8H.2 SFRSYM    DATA     BIT       CCF2
      00000092H   SFRSYM    DATA     BYTE      P1M0
      00000093H   SFRSYM    DATA     BYTE      P0M1
      000000E0H.7 SFRSYM    DATA     BIT       ACC7
      00000096H   SFRSYM    DATA     BYTE      P2M0
      00000091H   SFRSYM    DATA     BYTE      P1M1
      00000080H   SFRSYM    DATA     BYTE      P0
      000000B2H   SFRSYM    DATA     BYTE      P3M0
      00000095H   SFRSYM    DATA     BYTE      P2M1
      00000090H   SFRSYM    DATA     BYTE      P1
      000000B4H   SFRSYM    DATA     BYTE      P4M0
      000000B1H   SFRSYM    DATA     BYTE      P3M1
      000000A0H   SFRSYM    DATA     BYTE      P2
      000000ABH   SFRSYM    DATA     BYTE      WKTCH
      000000CAH   SFRSYM    DATA     BYTE      P5M0
      000000B3H   SFRSYM    DATA     BYTE      P4M1
      000000B0H   SFRSYM    DATA     BYTE      P3
      000000B0H.4 SFRSYM    DATA     BIT       T0
      000000CCH   SFRSYM    DATA     BYTE      P6M0
      000000C9H   SFRSYM    DATA     BYTE      P5M1
      000000C0H   SFRSYM    DATA     BYTE      P4
      000000D0H.6 SFRSYM    DATA     BIT       AC
      000000B0H.5 SFRSYM    DATA     BIT       CLKOUT0
      000000B0H.5 SFRSYM    DATA     BIT       T1
      000000C6H   SFRSYM    DATA     BYTE      ISP_TRIG
      000000F6H   SFRSYM    DATA     BYTE      PWMIF
      000000E2H   SFRSYM    DATA     BYTE      P7M0
      000000CBH   SFRSYM    DATA     BYTE      P6M1
      000000C8H   SFRSYM    DATA     BYTE      P5
      000000B0H.4 SFRSYM    DATA     BIT       CLKOUT1
      000000A0H.4 SFRSYM    DATA     BIT       SPI_SS_2
      000000A8H.7 SFRSYM    DATA     BIT       EA
      000000E1H   SFRSYM    DATA     BYTE      P7M1
      000000E8H   SFRSYM    DATA     BYTE      P6
      000000C8H.4 SFRSYM    DATA     BIT       SPI_SS_3
      00000090H.4 SFRSYM    DATA     BIT       SPI_MISO
      00000090H.3 SFRSYM    DATA     BIT       SPI_MOSI
      00000090H.1 SFRSYM    DATA     BIT       CCP0
      000000AAH   SFRSYM    DATA     BYTE      WKTCL
      000000F8H   SFRSYM    DATA     BYTE      P7
      00000090H.0 SFRSYM    DATA     BIT       CCP1
      000000CEH   SFRSYM    DATA     BYTE      SPCTL
      000000B0H.7 SFRSYM    DATA     BIT       CCP2
      000000D8H.7 SFRSYM    DATA     BIT       CF
      000000F5H   SFRSYM    DATA     BYTE      PWMCR
      000000F9H   SFRSYM    DATA     BYTE      CH
      000000A2H   SFRSYM    DATA     BYTE      P_SW1
      000000BAH   SFRSYM    DATA     BYTE      P_SW2
LX51 LINKER/LOCATER V4.66.93.0                                                        07/16/2024  15:05:47  PAGE 24


      000000A0H.1 SFRSYM    DATA     BIT       SPI_SCLK_2
      000000A8H.5 SFRSYM    DATA     BIT       EADC
      000000A8H   SFRSYM    DATA     BYTE      IE
      000000C0H.3 SFRSYM    DATA     BIT       SPI_SCLK_3
      000000E9H   SFRSYM    DATA     BYTE      CL
      000000C5H   SFRSYM    DATA     BYTE      IAP_CMD
      000000FAH   SFRSYM    DATA     BYTE      CCAP0H
      000000FBH   SFRSYM    DATA     BYTE      CCAP1H
      000000FCH   SFRSYM    DATA     BYTE      CCAP2H
      000000B6H   SFRSYM    DATA     BYTE      IPH2
      000000BDH   SFRSYM    DATA     BYTE      ADC_RES
      000000EAH   SFRSYM    DATA     BYTE      CCAP0L
      000000D8H.6 SFRSYM    DATA     BIT       CR
      000000B0H.7 SFRSYM    DATA     BIT       RD
      000000F7H   SFRSYM    DATA     BYTE      PWMFDCR
      000000EBH   SFRSYM    DATA     BYTE      CCAP1L
      000000DAH   SFRSYM    DATA     BYTE      CCAPM0
      000000ECH   SFRSYM    DATA     BYTE      CCAP2L
      000000DBH   SFRSYM    DATA     BYTE      CCAPM1
      000000DCH   SFRSYM    DATA     BYTE      CCAPM2
      000000A8H.4 SFRSYM    DATA     BIT       ES
      000000A0H.2 SFRSYM    DATA     BIT       SPI_MISO_2
      000000A0H.3 SFRSYM    DATA     BIT       SPI_MOSI_2
      000000B8H.5 SFRSYM    DATA     BIT       PADC
      000000B8H   SFRSYM    DATA     BYTE      IP
      000000C0H.1 SFRSYM    DATA     BIT       SPI_MISO_3
      000000C0H.0 SFRSYM    DATA     BIT       SPI_MOSI_3
      00000098H.0 SFRSYM    DATA     BIT       RI
      000000B0H.2 SFRSYM    DATA     BIT       INT0
      000000D0H.7 SFRSYM    DATA     BIT       CY
      000000B0H.3 SFRSYM    DATA     BIT       INT1
      00000098H.1 SFRSYM    DATA     BIT       TI
      00000097H   SFRSYM    DATA     BYTE      CLK_DIV
      000000C3H   SFRSYM    DATA     BYTE      IAP_ADDRH
      00000090H.0 SFRSYM    DATA     BIT       RXD2
      000000C5H   SFRSYM    DATA     BYTE      ISP_CMD
      00000090H.1 SFRSYM    DATA     BIT       TXD2
      000000B8H.4 SFRSYM    DATA     BIT       PS
      00000081H   SFRSYM    DATA     BYTE      SP
      000000D9H   SFRSYM    DATA     BYTE      CMOD
      000000D8H   SFRSYM    DATA     BYTE      CCON
      000000C4H   SFRSYM    DATA     BYTE      IAP_ADDRL
      000000B8H.7 SFRSYM    DATA     BIT       PPCA
      000000D0H.2 SFRSYM    DATA     BIT       OV
      000000E6H   SFRSYM    DATA     BYTE      CMPCR1
      000000B0H.6 SFRSYM    DATA     BIT       WR
      000000E7H   SFRSYM    DATA     BYTE      CMPCR2
      000000A8H.6 SFRSYM    DATA     BIT       ELVD
      00000080H.0 SFRSYM    DATA     BIT       P00
      000000BCH   SFRSYM    DATA     BYTE      ADC_CONTR
      00000099H   SFRSYM    DATA     BYTE      SBUF
      00000087H   SFRSYM    DATA     BYTE      PCON
      00000090H.0 SFRSYM    DATA     BIT       P10
      00000080H.1 SFRSYM    DATA     BIT       P01
      000000C3H   SFRSYM    DATA     BYTE      ISP_ADDRH
      000000A0H.0 SFRSYM    DATA     BIT       P20
      00000090H.1 SFRSYM    DATA     BIT       P11
      00000080H.2 SFRSYM    DATA     BIT       P02
      000000B0H.0 SFRSYM    DATA     BIT       P30
      000000A0H.1 SFRSYM    DATA     BIT       P21
      00000090H.2 SFRSYM    DATA     BIT       P12
      00000080H.3 SFRSYM    DATA     BIT       P03
      00000098H   SFRSYM    DATA     BYTE      SCON
      0000008FH   SFRSYM    DATA     BYTE      WAKE_CLKO
      000000C0H.0 SFRSYM    DATA     BIT       P40
LX51 LINKER/LOCATER V4.66.93.0                                                        07/16/2024  15:05:47  PAGE 25


      000000B0H.1 SFRSYM    DATA     BIT       P31
      000000A0H.2 SFRSYM    DATA     BIT       P22
      00000090H.3 SFRSYM    DATA     BIT       P13
      00000080H.4 SFRSYM    DATA     BIT       P04
      00000089H   SFRSYM    DATA     BYTE      TMOD
      00000088H   SFRSYM    DATA     BYTE      TCON
      000000C8H.0 SFRSYM    DATA     BIT       P50
      000000C0H.1 SFRSYM    DATA     BIT       P41
      000000B0H.2 SFRSYM    DATA     BIT       P32
      000000A0H.3 SFRSYM    DATA     BIT       P23
      00000090H.4 SFRSYM    DATA     BIT       P14
      00000080H.5 SFRSYM    DATA     BIT       P05
      000000C4H   SFRSYM    DATA     BYTE      ISP_ADDRL
      000000E8H.0 SFRSYM    DATA     BIT       P60
      000000C8H.1 SFRSYM    DATA     BIT       P51
      000000C0H.2 SFRSYM    DATA     BIT       P42
      000000B0H.3 SFRSYM    DATA     BIT       P33
      000000A0H.4 SFRSYM    DATA     BIT       P24
      00000090H.5 SFRSYM    DATA     BIT       P15
      00000080H.6 SFRSYM    DATA     BIT       P06
      000000B8H.6 SFRSYM    DATA     BIT       PLVD
      000000F8H.0 SFRSYM    DATA     BIT       P70
      000000E8H.1 SFRSYM    DATA     BIT       P61
      000000C8H.2 SFRSYM    DATA     BIT       P52
      000000C0H.3 SFRSYM    DATA     BIT       P43
      000000B0H.4 SFRSYM    DATA     BIT       P34
      000000A0H.5 SFRSYM    DATA     BIT       P25
      00000090H.6 SFRSYM    DATA     BIT       P16
      00000080H.7 SFRSYM    DATA     BIT       P07
      000000F8H.1 SFRSYM    DATA     BIT       P71
      000000E8H.2 SFRSYM    DATA     BIT       P62
      000000C8H.3 SFRSYM    DATA     BIT       P53
      000000C0H.4 SFRSYM    DATA     BIT       P44
      000000B0H.5 SFRSYM    DATA     BIT       P35
      000000A0H.6 SFRSYM    DATA     BIT       P26
      00000090H.7 SFRSYM    DATA     BIT       P17
      000000F8H.2 SFRSYM    DATA     BIT       P72
      000000E8H.3 SFRSYM    DATA     BIT       P63
      000000C8H.4 SFRSYM    DATA     BIT       P54
      000000C0H.5 SFRSYM    DATA     BIT       P45
      000000B0H.6 SFRSYM    DATA     BIT       P36
      000000A0H.7 SFRSYM    DATA     BIT       P27
      000000F8H.3 SFRSYM    DATA     BIT       P73
      000000E8H.4 SFRSYM    DATA     BIT       P64
      000000C8H.5 SFRSYM    DATA     BIT       P55
      000000C0H.6 SFRSYM    DATA     BIT       P46
      000000B0H.7 SFRSYM    DATA     BIT       P37
      000000F8H.4 SFRSYM    DATA     BIT       P74
      000000E8H.5 SFRSYM    DATA     BIT       P65
      000000C8H.6 SFRSYM    DATA     BIT       P56
      000000C0H.7 SFRSYM    DATA     BIT       P47
      000000F8H.5 SFRSYM    DATA     BIT       P75
      000000E8H.6 SFRSYM    DATA     BIT       P66
      000000C8H.7 SFRSYM    DATA     BIT       P57
      000000F8H.6 SFRSYM    DATA     BIT       P76
      000000E8H.7 SFRSYM    DATA     BIT       P67
      00000088H.1 SFRSYM    DATA     BIT       IE0
      000000A1H   SFRSYM    DATA     BYTE      BUS_SPEED
      000000F8H.7 SFRSYM    DATA     BIT       P77
      00000088H.3 SFRSYM    DATA     BIT       IE1
      000000AFH   SFRSYM    DATA     BYTE      IE2
      0000008EH   SFRSYM    DATA     BYTE      AUXR
      000000F0H   SFRSYM    DATA     BYTE      B
      000000C7H   SFRSYM    DATA     BYTE      IAP_CONTR
      000000F1H   SFRSYM    DATA     BYTE      PWMCFG
LX51 LINKER/LOCATER V4.66.93.0                                                        07/16/2024  15:05:47  PAGE 26


      000000E0H   SFRSYM    DATA     BYTE      ACC
      000000A8H.1 SFRSYM    DATA     BIT       ET0
      00000088H.5 SFRSYM    DATA     BIT       TF0
      000000A8H.3 SFRSYM    DATA     BIT       ET1
      0000008CH   SFRSYM    DATA     BYTE      RL_TH0
      00000088H.7 SFRSYM    DATA     BIT       TF1
      000000B5H   SFRSYM    DATA     BYTE      IP2
      0000008DH   SFRSYM    DATA     BYTE      RL_TH1
      00000098H.2 SFRSYM    DATA     BIT       RB8
      0000008CH   SFRSYM    DATA     BYTE      TH0
      000000D6H   SFRSYM    DATA     BYTE      RL_T2H
      0000008DH   SFRSYM    DATA     BYTE      TH1
      00000088H.0 SFRSYM    DATA     BIT       IT0
      000000A8H.0 SFRSYM    DATA     BIT       EX0
      000000D4H   SFRSYM    DATA     BYTE      RL_T3H
      000000D6H   SFRSYM    DATA     BYTE      TH2
      00000098H.3 SFRSYM    DATA     BIT       TB8
      000000D6H   SFRSYM    DATA     BYTE      T2H
      00000088H.2 SFRSYM    DATA     BIT       IT1
      000000A8H.2 SFRSYM    DATA     BIT       EX1
      000000D2H   SFRSYM    DATA     BYTE      RL_T4H
      000000D4H   SFRSYM    DATA     BYTE      TH3
      0000008AH   SFRSYM    DATA     BYTE      RL_TL0
      000000D4H   SFRSYM    DATA     BYTE      T3H
      000000D0H.0 SFRSYM    DATA     BIT       P
      000000D2H   SFRSYM    DATA     BYTE      TH4
      0000008BH   SFRSYM    DATA     BYTE      RL_TL1
      00000098H.7 SFRSYM    DATA     BIT       SM0
      000000D2H   SFRSYM    DATA     BYTE      T4H
      0000008AH   SFRSYM    DATA     BYTE      TL0
      000000D7H   SFRSYM    DATA     BYTE      RL_T2L
      00000098H.6 SFRSYM    DATA     BIT       SM1
      0000008BH   SFRSYM    DATA     BYTE      TL1
      000000D5H   SFRSYM    DATA     BYTE      RL_T3L
      000000D7H   SFRSYM    DATA     BYTE      TL2
      00000098H.5 SFRSYM    DATA     BIT       SM2
      000000D7H   SFRSYM    DATA     BYTE      T2L
      000000D3H   SFRSYM    DATA     BYTE      RL_T4L
      000000D5H   SFRSYM    DATA     BYTE      TL3
      000000D5H   SFRSYM    DATA     BYTE      T3L
      000000D3H   SFRSYM    DATA     BYTE      TL4
      000000D3H   SFRSYM    DATA     BYTE      T4L
      000000B8H.1 SFRSYM    DATA     BIT       PT0
      000000C7H   SFRSYM    DATA     BYTE      ISP_CONTR
      000000B8H.3 SFRSYM    DATA     BIT       PT1
      000000D0H.3 SFRSYM    DATA     BIT       RS0
      000000C2H   SFRSYM    DATA     BYTE      IAP_DATA
      00000088H.4 SFRSYM    DATA     BIT       TR0
      000000D0H.4 SFRSYM    DATA     BIT       RS1
      00000088H.6 SFRSYM    DATA     BIT       TR1
      000000C1H   SFRSYM    DATA     BYTE      WDT_CONTR
      000000B8H.0 SFRSYM    DATA     BIT       PX0
      000000B8H.2 SFRSYM    DATA     BIT       PX1
      000000F2H   SFRSYM    DATA     BYTE      PCA_PWM0
      000000F3H   SFRSYM    DATA     BYTE      PCA_PWM1
      000000F4H   SFRSYM    DATA     BYTE      PCA_PWM2
      0000009DH   SFRSYM    DATA     BYTE      P1ASF
      00000083H   SFRSYM    DATA     BYTE      DPH
      000000D1H   SFRSYM    DATA     BYTE      T3T4M
      000000D1H   SFRSYM    DATA     BYTE      T4T3M
      000000BEH   SFRSYM    DATA     BYTE      ADC_RESL
      00000082H   SFRSYM    DATA     BYTE      DPL
      000000B7H   SFRSYM    DATA     BYTE      IPH
      000000CDH   SFRSYM    DATA     BYTE      SPSTAT
      0000009BH   SFRSYM    DATA     BYTE      S2BUF
LX51 LINKER/LOCATER V4.66.93.0                                                        07/16/2024  15:05:47  PAGE 27


      00000097H   SFRSYM    DATA     BYTE      PCON2
      000000ADH   SFRSYM    DATA     BYTE      S3BUF
      00000085H   SFRSYM    DATA     BYTE      S4BUF
      00000098H.4 SFRSYM    DATA     BIT       REN
      0000009AH   SFRSYM    DATA     BYTE      S2CON
      000000ACH   SFRSYM    DATA     BYTE      S3CON
      000000C2H   SFRSYM    DATA     BYTE      ISP_DATA
      00000084H   SFRSYM    DATA     BYTE      S4CON
      000000B9H   SFRSYM    DATA     BYTE      SADEN
      000000B0H.0 SFRSYM    DATA     BIT       RXD
      000000A9H   SFRSYM    DATA     BYTE      SADDR
      000000B0H.1 SFRSYM    DATA     BIT       TXD
      000000F0H.0 SFRSYM    DATA     BIT       B0
      000000C6H   SFRSYM    DATA     BYTE      IAP_TRIG
      000000A2H   SFRSYM    DATA     BYTE      AUXR1
      000000F0H.1 SFRSYM    DATA     BIT       B1
      00000090H.2 SFRSYM    DATA     BIT       SPI_SS
      0000008FH   SFRSYM    DATA     BYTE      AUXR2
      000000F0H.2 SFRSYM    DATA     BIT       B2
      000000F0H.3 SFRSYM    DATA     BIT       B3
      000000D0H.5 SFRSYM    DATA     BIT       F0
      000000F0H.4 SFRSYM    DATA     BIT       B4
      0000008FH   SFRSYM    DATA     BYTE      INT_CLKO
      000000D0H.1 SFRSYM    DATA     BIT       F1
      000000F0H.5 SFRSYM    DATA     BIT       B5
      000000F0H.6 SFRSYM    DATA     BIT       B6
      000000E0H.0 SFRSYM    DATA     BIT       ACC0
      000000F0H.7 SFRSYM    DATA     BIT       B7
      000000E0H.1 SFRSYM    DATA     BIT       ACC1
      000000E0H.2 SFRSYM    DATA     BIT       ACC2
      000000D0H   SFRSYM    DATA     BYTE      PSW
      000000E0H.3 SFRSYM    DATA     BIT       ACC3
      00000090H.5 SFRSYM    DATA     BIT       SPI_SCLK
      000000E0H.4 SFRSYM    DATA     BIT       ACC4
      000000D8H.0 SFRSYM    DATA     BIT       CCF0
      000000E0H.5 SFRSYM    DATA     BIT       ACC5
      000000D8H.1 SFRSYM    DATA     BIT       CCF1
      000000CFH   SFRSYM    DATA     BYTE      SPDAT
      00000094H   SFRSYM    DATA     BYTE      P0M0
      000000E0H.6 SFRSYM    DATA     BIT       ACC6

      01002C4AH   BLOCK     CODE     ---       LVL=0
      01002C4AH   LINE      CODE     ---       #8
      01002C4AH   LINE      CODE     ---       #9
      01002C4AH   LINE      CODE     ---       #10
      01002C4DH   LINE      CODE     ---       #11
      01002C50H   LINE      CODE     ---       #12
      01002C53H   LINE      CODE     ---       #13
      01002C56H   LINE      CODE     ---       #14
      01002C59H   LINE      CODE     ---       #15
      01002C5CH   LINE      CODE     ---       #16
      01002C5FH   LINE      CODE     ---       #17
      01002C5FH   LINE      CODE     ---       #18
      01002C5FH   LINE      CODE     ---       #19
      01002C71H   LINE      CODE     ---       #20
      01002C71H   LINE      CODE     ---       #21
      01002C79H   LINE      CODE     ---       #22
      01002C84H   LINE      CODE     ---       #23
      01002C90H   LINE      CODE     ---       #24
      01002C99H   LINE      CODE     ---       #25
      01002C9CH   LINE      CODE     ---       #26
      01002CA5H   LINE      CODE     ---       #27
      01002CA8H   LINE      CODE     ---       #28
      01002CAAH   LINE      CODE     ---       #29
      01002CADH   LINE      CODE     ---       #30
LX51 LINKER/LOCATER V4.66.93.0                                                        07/16/2024  15:05:47  PAGE 28


      01002CADH   LINE      CODE     ---       #31
      01002CB4H   LINE      CODE     ---       #32
      ---         BLOCKEND  ---      ---       LVL=0

      ---         MODULE    ---      ---       UART
      00000023H   PUBLIC    DATA     BYTE      n
      00000022H   PUBLIC    DATA     BYTE      m
      00000021H   PUBLIC    DATA     BYTE      j
      00000020H   PUBLIC    DATA     BYTE      i
      02000015H   PUBLIC    XDATA    ---       Rec_Buf4
      02000007H   PUBLIC    XDATA    ---       Rec_Buf3
      02000004H   PUBLIC    XDATA    ---       Rec_Buf2
      02000000H   PUBLIC    XDATA    ---       Rec_Buf1
      010038F7H   PUBLIC    CODE     ---       Uart4
      01003EE6H   PUBLIC    CODE     ---       CLR_Buf4
      01003CA7H   PUBLIC    CODE     ---       _SendStringByUart4
      0100410FH   PUBLIC    CODE     ---       _SendDataByUart4
      010038B2H   PUBLIC    CODE     ---       Uart3
      01003EC7H   PUBLIC    CODE     ---       CLR_Buf3
      01003C7CH   PUBLIC    CODE     ---       _SendStringByUart3
      01004104H   PUBLIC    CODE     ---       _SendDataByUart3
      01000046H   PUBLIC    CODE     ---       Uart2
      01003EA8H   PUBLIC    CODE     ---       CLR_Buf2
      010040F9H   PUBLIC    CODE     ---       _SendDataByUart2
      01003979H   PUBLIC    CODE     ---       Uart1
      01003E1FH   PUBLIC    CODE     ---       _SendStringByUart1
      01004124H   PUBLIC    CODE     ---       _SendDataByUart1
      0100393CH   PUBLIC    CODE     ---       Uart1234_Init
      01003E88H   PUBLIC    CODE     ---       _delay_ms
      01004040H   PUBLIC    CODE     ---       wagh
      000000D8H.2 SFRSYM    DATA     BIT       CCF2
      00000092H   SFRSYM    DATA     BYTE      P1M0
      00000093H   SFRSYM    DATA     BYTE      P0M1
      000000E0H.7 SFRSYM    DATA     BIT       ACC7
      00000096H   SFRSYM    DATA     BYTE      P2M0
      00000091H   SFRSYM    DATA     BYTE      P1M1
      00000080H   SFRSYM    DATA     BYTE      P0
      000000B2H   SFRSYM    DATA     BYTE      P3M0
      00000095H   SFRSYM    DATA     BYTE      P2M1
      00000090H   SFRSYM    DATA     BYTE      P1
      000000B4H   SFRSYM    DATA     BYTE      P4M0
      000000B1H   SFRSYM    DATA     BYTE      P3M1
      000000A0H   SFRSYM    DATA     BYTE      P2
      000000ABH   SFRSYM    DATA     BYTE      WKTCH
      000000CAH   SFRSYM    DATA     BYTE      P5M0
      000000B3H   SFRSYM    DATA     BYTE      P4M1
      000000B0H   SFRSYM    DATA     BYTE      P3
      000000B0H.4 SFRSYM    DATA     BIT       T0
      000000CCH   SFRSYM    DATA     BYTE      P6M0
      000000C9H   SFRSYM    DATA     BYTE      P5M1
      000000C0H   SFRSYM    DATA     BYTE      P4
      000000D0H.6 SFRSYM    DATA     BIT       AC
      000000B0H.5 SFRSYM    DATA     BIT       CLKOUT0
      000000B0H.5 SFRSYM    DATA     BIT       T1
      000000C6H   SFRSYM    DATA     BYTE      ISP_TRIG
      000000F6H   SFRSYM    DATA     BYTE      PWMIF
      000000E2H   SFRSYM    DATA     BYTE      P7M0
      000000CBH   SFRSYM    DATA     BYTE      P6M1
      000000C8H   SFRSYM    DATA     BYTE      P5
      000000B0H.4 SFRSYM    DATA     BIT       CLKOUT1
      000000A0H.4 SFRSYM    DATA     BIT       SPI_SS_2
      000000A8H.7 SFRSYM    DATA     BIT       EA
      000000E1H   SFRSYM    DATA     BYTE      P7M1
      000000E8H   SFRSYM    DATA     BYTE      P6
      000000C8H.4 SFRSYM    DATA     BIT       SPI_SS_3
LX51 LINKER/LOCATER V4.66.93.0                                                        07/16/2024  15:05:47  PAGE 29


      00000090H.4 SFRSYM    DATA     BIT       SPI_MISO
      00000090H.3 SFRSYM    DATA     BIT       SPI_MOSI
      00000090H.1 SFRSYM    DATA     BIT       CCP0
      000000AAH   SFRSYM    DATA     BYTE      WKTCL
      000000F8H   SFRSYM    DATA     BYTE      P7
      00000090H.0 SFRSYM    DATA     BIT       CCP1
      000000CEH   SFRSYM    DATA     BYTE      SPCTL
      000000B0H.7 SFRSYM    DATA     BIT       CCP2
      000000D8H.7 SFRSYM    DATA     BIT       CF
      000000F5H   SFRSYM    DATA     BYTE      PWMCR
      000000F9H   SFRSYM    DATA     BYTE      CH
      000000A2H   SFRSYM    DATA     BYTE      P_SW1
      000000BAH   SFRSYM    DATA     BYTE      P_SW2
      000000A0H.1 SFRSYM    DATA     BIT       SPI_SCLK_2
      000000A8H.5 SFRSYM    DATA     BIT       EADC
      000000A8H   SFRSYM    DATA     BYTE      IE
      000000C0H.3 SFRSYM    DATA     BIT       SPI_SCLK_3
      000000E9H   SFRSYM    DATA     BYTE      CL
      000000C5H   SFRSYM    DATA     BYTE      IAP_CMD
      000000FAH   SFRSYM    DATA     BYTE      CCAP0H
      000000FBH   SFRSYM    DATA     BYTE      CCAP1H
      000000FCH   SFRSYM    DATA     BYTE      CCAP2H
      000000B6H   SFRSYM    DATA     BYTE      IPH2
      000000BDH   SFRSYM    DATA     BYTE      ADC_RES
      000000EAH   SFRSYM    DATA     BYTE      CCAP0L
      000000D8H.6 SFRSYM    DATA     BIT       CR
      000000B0H.7 SFRSYM    DATA     BIT       RD
      000000F7H   SFRSYM    DATA     BYTE      PWMFDCR
      000000EBH   SFRSYM    DATA     BYTE      CCAP1L
      000000DAH   SFRSYM    DATA     BYTE      CCAPM0
      000000ECH   SFRSYM    DATA     BYTE      CCAP2L
      000000DBH   SFRSYM    DATA     BYTE      CCAPM1
      000000DCH   SFRSYM    DATA     BYTE      CCAPM2
      000000A8H.4 SFRSYM    DATA     BIT       ES
      000000A0H.2 SFRSYM    DATA     BIT       SPI_MISO_2
      000000A0H.3 SFRSYM    DATA     BIT       SPI_MOSI_2
      000000B8H.5 SFRSYM    DATA     BIT       PADC
      000000B8H   SFRSYM    DATA     BYTE      IP
      000000C0H.1 SFRSYM    DATA     BIT       SPI_MISO_3
      000000C0H.0 SFRSYM    DATA     BIT       SPI_MOSI_3
      00000098H.0 SFRSYM    DATA     BIT       RI
      000000B0H.2 SFRSYM    DATA     BIT       INT0
      000000D0H.7 SFRSYM    DATA     BIT       CY
      000000B0H.3 SFRSYM    DATA     BIT       INT1
      00000098H.1 SFRSYM    DATA     BIT       TI
      00000097H   SFRSYM    DATA     BYTE      CLK_DIV
      000000C3H   SFRSYM    DATA     BYTE      IAP_ADDRH
      00000090H.0 SFRSYM    DATA     BIT       RXD2
      000000C5H   SFRSYM    DATA     BYTE      ISP_CMD
      00000090H.1 SFRSYM    DATA     BIT       TXD2
      000000B8H.4 SFRSYM    DATA     BIT       PS
      00000081H   SFRSYM    DATA     BYTE      SP
      000000D9H   SFRSYM    DATA     BYTE      CMOD
      000000D8H   SFRSYM    DATA     BYTE      CCON
      000000C4H   SFRSYM    DATA     BYTE      IAP_ADDRL
      000000B8H.7 SFRSYM    DATA     BIT       PPCA
      000000D0H.2 SFRSYM    DATA     BIT       OV
      000000E6H   SFRSYM    DATA     BYTE      CMPCR1
      000000B0H.6 SFRSYM    DATA     BIT       WR
      000000E7H   SFRSYM    DATA     BYTE      CMPCR2
      000000A8H.6 SFRSYM    DATA     BIT       ELVD
      00000080H.0 SFRSYM    DATA     BIT       P00
      000000BCH   SFRSYM    DATA     BYTE      ADC_CONTR
      00000099H   SFRSYM    DATA     BYTE      SBUF
      00000087H   SFRSYM    DATA     BYTE      PCON
LX51 LINKER/LOCATER V4.66.93.0                                                        07/16/2024  15:05:47  PAGE 30


      00000090H.0 SFRSYM    DATA     BIT       P10
      00000080H.1 SFRSYM    DATA     BIT       P01
      000000C3H   SFRSYM    DATA     BYTE      ISP_ADDRH
      000000A0H.0 SFRSYM    DATA     BIT       P20
      00000090H.1 SFRSYM    DATA     BIT       P11
      00000080H.2 SFRSYM    DATA     BIT       P02
      000000B0H.0 SFRSYM    DATA     BIT       P30
      000000A0H.1 SFRSYM    DATA     BIT       P21
      00000090H.2 SFRSYM    DATA     BIT       P12
      00000080H.3 SFRSYM    DATA     BIT       P03
      00000098H   SFRSYM    DATA     BYTE      SCON
      0000008FH   SFRSYM    DATA     BYTE      WAKE_CLKO
      000000C0H.0 SFRSYM    DATA     BIT       P40
      000000B0H.1 SFRSYM    DATA     BIT       P31
      000000A0H.2 SFRSYM    DATA     BIT       P22
      00000090H.3 SFRSYM    DATA     BIT       P13
      00000080H.4 SFRSYM    DATA     BIT       P04
      00000089H   SFRSYM    DATA     BYTE      TMOD
      00000088H   SFRSYM    DATA     BYTE      TCON
      000000C8H.0 SFRSYM    DATA     BIT       P50
      000000C0H.1 SFRSYM    DATA     BIT       P41
      000000B0H.2 SFRSYM    DATA     BIT       P32
      000000A0H.3 SFRSYM    DATA     BIT       P23
      00000090H.4 SFRSYM    DATA     BIT       P14
      00000080H.5 SFRSYM    DATA     BIT       P05
      000000C4H   SFRSYM    DATA     BYTE      ISP_ADDRL
      000000E8H.0 SFRSYM    DATA     BIT       P60
      000000C8H.1 SFRSYM    DATA     BIT       P51
      000000C0H.2 SFRSYM    DATA     BIT       P42
      000000B0H.3 SFRSYM    DATA     BIT       P33
      000000A0H.4 SFRSYM    DATA     BIT       P24
      00000090H.5 SFRSYM    DATA     BIT       P15
      00000080H.6 SFRSYM    DATA     BIT       P06
      000000B8H.6 SFRSYM    DATA     BIT       PLVD
      000000F8H.0 SFRSYM    DATA     BIT       P70
      000000E8H.1 SFRSYM    DATA     BIT       P61
      000000C8H.2 SFRSYM    DATA     BIT       P52
      000000C0H.3 SFRSYM    DATA     BIT       P43
      000000B0H.4 SFRSYM    DATA     BIT       P34
      000000A0H.5 SFRSYM    DATA     BIT       P25
      00000090H.6 SFRSYM    DATA     BIT       P16
      00000080H.7 SFRSYM    DATA     BIT       P07
      000000F8H.1 SFRSYM    DATA     BIT       P71
      000000E8H.2 SFRSYM    DATA     BIT       P62
      000000C8H.3 SFRSYM    DATA     BIT       P53
      000000C0H.4 SFRSYM    DATA     BIT       P44
      000000B0H.5 SFRSYM    DATA     BIT       P35
      000000A0H.6 SFRSYM    DATA     BIT       P26
      00000090H.7 SFRSYM    DATA     BIT       P17
      000000F8H.2 SFRSYM    DATA     BIT       P72
      000000E8H.3 SFRSYM    DATA     BIT       P63
      000000C8H.4 SFRSYM    DATA     BIT       P54
      000000C0H.5 SFRSYM    DATA     BIT       P45
      000000B0H.6 SFRSYM    DATA     BIT       P36
      000000A0H.7 SFRSYM    DATA     BIT       P27
      000000F8H.3 SFRSYM    DATA     BIT       P73
      000000E8H.4 SFRSYM    DATA     BIT       P64
      000000C8H.5 SFRSYM    DATA     BIT       P55
      000000C0H.6 SFRSYM    DATA     BIT       P46
      000000B0H.7 SFRSYM    DATA     BIT       P37
      000000F8H.4 SFRSYM    DATA     BIT       P74
      000000E8H.5 SFRSYM    DATA     BIT       P65
      000000C8H.6 SFRSYM    DATA     BIT       P56
      000000C0H.7 SFRSYM    DATA     BIT       P47
      000000F8H.5 SFRSYM    DATA     BIT       P75
LX51 LINKER/LOCATER V4.66.93.0                                                        07/16/2024  15:05:47  PAGE 31


      000000E8H.6 SFRSYM    DATA     BIT       P66
      000000C8H.7 SFRSYM    DATA     BIT       P57
      000000F8H.6 SFRSYM    DATA     BIT       P76
      000000E8H.7 SFRSYM    DATA     BIT       P67
      00000088H.1 SFRSYM    DATA     BIT       IE0
      000000A1H   SFRSYM    DATA     BYTE      BUS_SPEED
      000000F8H.7 SFRSYM    DATA     BIT       P77
      00000088H.3 SFRSYM    DATA     BIT       IE1
      000000AFH   SFRSYM    DATA     BYTE      IE2
      0000008EH   SFRSYM    DATA     BYTE      AUXR
      000000F0H   SFRSYM    DATA     BYTE      B
      000000C7H   SFRSYM    DATA     BYTE      IAP_CONTR
      000000F1H   SFRSYM    DATA     BYTE      PWMCFG
      000000E0H   SFRSYM    DATA     BYTE      ACC
      000000A8H.1 SFRSYM    DATA     BIT       ET0
      00000088H.5 SFRSYM    DATA     BIT       TF0
      000000A8H.3 SFRSYM    DATA     BIT       ET1
      0000008CH   SFRSYM    DATA     BYTE      RL_TH0
      00000088H.7 SFRSYM    DATA     BIT       TF1
      000000B5H   SFRSYM    DATA     BYTE      IP2
      0000008DH   SFRSYM    DATA     BYTE      RL_TH1
      00000098H.2 SFRSYM    DATA     BIT       RB8
      0000008CH   SFRSYM    DATA     BYTE      TH0
      000000D6H   SFRSYM    DATA     BYTE      RL_T2H
      0000008DH   SFRSYM    DATA     BYTE      TH1
      00000088H.0 SFRSYM    DATA     BIT       IT0
      000000A8H.0 SFRSYM    DATA     BIT       EX0
      000000D4H   SFRSYM    DATA     BYTE      RL_T3H
      000000D6H   SFRSYM    DATA     BYTE      TH2
      00000098H.3 SFRSYM    DATA     BIT       TB8
      000000D6H   SFRSYM    DATA     BYTE      T2H
      00000088H.2 SFRSYM    DATA     BIT       IT1
      000000A8H.2 SFRSYM    DATA     BIT       EX1
      000000D2H   SFRSYM    DATA     BYTE      RL_T4H
      000000D4H   SFRSYM    DATA     BYTE      TH3
      0000008AH   SFRSYM    DATA     BYTE      RL_TL0
      000000D4H   SFRSYM    DATA     BYTE      T3H
      000000D0H.0 SFRSYM    DATA     BIT       P
      000000D2H   SFRSYM    DATA     BYTE      TH4
      0000008BH   SFRSYM    DATA     BYTE      RL_TL1
      00000098H.7 SFRSYM    DATA     BIT       SM0
      000000D2H   SFRSYM    DATA     BYTE      T4H
      0000008AH   SFRSYM    DATA     BYTE      TL0
      000000D7H   SFRSYM    DATA     BYTE      RL_T2L
      00000098H.6 SFRSYM    DATA     BIT       SM1
      0000008BH   SFRSYM    DATA     BYTE      TL1
      000000D5H   SFRSYM    DATA     BYTE      RL_T3L
      000000D7H   SFRSYM    DATA     BYTE      TL2
      00000098H.5 SFRSYM    DATA     BIT       SM2
      000000D7H   SFRSYM    DATA     BYTE      T2L
      000000D3H   SFRSYM    DATA     BYTE      RL_T4L
      000000D5H   SFRSYM    DATA     BYTE      TL3
      000000D5H   SFRSYM    DATA     BYTE      T3L
      000000D3H   SFRSYM    DATA     BYTE      TL4
      000000D3H   SFRSYM    DATA     BYTE      T4L
      000000B8H.1 SFRSYM    DATA     BIT       PT0
      000000C7H   SFRSYM    DATA     BYTE      ISP_CONTR
      000000B8H.3 SFRSYM    DATA     BIT       PT1
      000000D0H.3 SFRSYM    DATA     BIT       RS0
      000000C2H   SFRSYM    DATA     BYTE      IAP_DATA
      00000088H.4 SFRSYM    DATA     BIT       TR0
      000000D0H.4 SFRSYM    DATA     BIT       RS1
      00000088H.6 SFRSYM    DATA     BIT       TR1
      000000C1H   SFRSYM    DATA     BYTE      WDT_CONTR
      000000B8H.0 SFRSYM    DATA     BIT       PX0
LX51 LINKER/LOCATER V4.66.93.0                                                        07/16/2024  15:05:47  PAGE 32


      000000B8H.2 SFRSYM    DATA     BIT       PX1
      000000F2H   SFRSYM    DATA     BYTE      PCA_PWM0
      000000F3H   SFRSYM    DATA     BYTE      PCA_PWM1
      000000F4H   SFRSYM    DATA     BYTE      PCA_PWM2
      0000009DH   SFRSYM    DATA     BYTE      P1ASF
      00000083H   SFRSYM    DATA     BYTE      DPH
      000000D1H   SFRSYM    DATA     BYTE      T3T4M
      000000D1H   SFRSYM    DATA     BYTE      T4T3M
      000000BEH   SFRSYM    DATA     BYTE      ADC_RESL
      00000082H   SFRSYM    DATA     BYTE      DPL
      000000B7H   SFRSYM    DATA     BYTE      IPH
      000000CDH   SFRSYM    DATA     BYTE      SPSTAT
      0000009BH   SFRSYM    DATA     BYTE      S2BUF
      00000097H   SFRSYM    DATA     BYTE      PCON2
      000000ADH   SFRSYM    DATA     BYTE      S3BUF
      00000085H   SFRSYM    DATA     BYTE      S4BUF
      00000098H.4 SFRSYM    DATA     BIT       REN
      0000009AH   SFRSYM    DATA     BYTE      S2CON
      000000ACH   SFRSYM    DATA     BYTE      S3CON
      000000C2H   SFRSYM    DATA     BYTE      ISP_DATA
      00000084H   SFRSYM    DATA     BYTE      S4CON
      000000B9H   SFRSYM    DATA     BYTE      SADEN
      000000B0H.0 SFRSYM    DATA     BIT       RXD
      000000A9H   SFRSYM    DATA     BYTE      SADDR
      000000B0H.1 SFRSYM    DATA     BIT       TXD
      000000F0H.0 SFRSYM    DATA     BIT       B0
      000000C6H   SFRSYM    DATA     BYTE      IAP_TRIG
      000000A2H   SFRSYM    DATA     BYTE      AUXR1
      000000F0H.1 SFRSYM    DATA     BIT       B1
      00000090H.2 SFRSYM    DATA     BIT       SPI_SS
      0000008FH   SFRSYM    DATA     BYTE      AUXR2
      000000F0H.2 SFRSYM    DATA     BIT       B2
      000000F0H.3 SFRSYM    DATA     BIT       B3
      000000D0H.5 SFRSYM    DATA     BIT       F0
      000000F0H.4 SFRSYM    DATA     BIT       B4
      0000008FH   SFRSYM    DATA     BYTE      INT_CLKO
      000000D0H.1 SFRSYM    DATA     BIT       F1
      000000F0H.5 SFRSYM    DATA     BIT       B5
      000000F0H.6 SFRSYM    DATA     BIT       B6
      000000E0H.0 SFRSYM    DATA     BIT       ACC0
      000000F0H.7 SFRSYM    DATA     BIT       B7
      000000E0H.1 SFRSYM    DATA     BIT       ACC1
      000000E0H.2 SFRSYM    DATA     BIT       ACC2
      000000D0H   SFRSYM    DATA     BYTE      PSW
      000000E0H.3 SFRSYM    DATA     BIT       ACC3
      00000090H.5 SFRSYM    DATA     BIT       SPI_SCLK
      000000E0H.4 SFRSYM    DATA     BIT       ACC4
      000000D8H.0 SFRSYM    DATA     BIT       CCF0
      000000E0H.5 SFRSYM    DATA     BIT       ACC5
      000000D8H.1 SFRSYM    DATA     BIT       CCF1
      000000CFH   SFRSYM    DATA     BYTE      SPDAT
      00000094H   SFRSYM    DATA     BYTE      P0M0
      000000E0H.6 SFRSYM    DATA     BIT       ACC6

      01004040H   BLOCK     CODE     ---       LVL=0
      01004040H   LINE      CODE     ---       #29
      01004040H   LINE      CODE     ---       #30
      01004040H   LINE      CODE     ---       #31
      01004045H   LINE      CODE     ---       #32
      01004049H   LINE      CODE     ---       #33
      0100404DH   LINE      CODE     ---       #34
      01004051H   LINE      CODE     ---       #35
      01004055H   LINE      CODE     ---       #36
      01004059H   LINE      CODE     ---       #37
      ---         BLOCKEND  ---      ---       LVL=0
LX51 LINKER/LOCATER V4.66.93.0                                                        07/16/2024  15:05:47  PAGE 33



      01003E88H   BLOCK     CODE     ---       LVL=0
      00000006H   SYMBOL    DATA     WORD      x
      01003E88H   BLOCK     CODE     NEAR LAB  LVL=1
      00000004H   SYMBOL    DATA     WORD      j
      00000002H   SYMBOL    DATA     WORD      i
      ---         BLOCKEND  ---      ---       LVL=1
      01003E88H   LINE      CODE     ---       #39
      01003E88H   LINE      CODE     ---       #40
      01003E88H   LINE      CODE     ---       #42
      01003E92H   LINE      CODE     ---       #43
      01003E92H   LINE      CODE     ---       #44
      01003EA0H   LINE      CODE     ---       #45
      01003EA7H   LINE      CODE     ---       #46
      ---         BLOCKEND  ---      ---       LVL=0

      0100393CH   BLOCK     CODE     ---       LVL=0
      0100393CH   LINE      CODE     ---       #48
      0100393CH   LINE      CODE     ---       #49
      0100393CH   LINE      CODE     ---       #50
      0100393CH   LINE      CODE     ---       #51
      0100393CH   LINE      CODE     ---       #52
      0100393FH   LINE      CODE     ---       #54
      01003942H   LINE      CODE     ---       #55
      01003945H   LINE      CODE     ---       #56
      01003948H   LINE      CODE     ---       #58
      0100394BH   LINE      CODE     ---       #60
      0100394EH   LINE      CODE     ---       #61
      01003951H   LINE      CODE     ---       #63
      01003954H   LINE      CODE     ---       #64
      01003957H   LINE      CODE     ---       #65
      0100395AH   LINE      CODE     ---       #67
      0100395DH   LINE      CODE     ---       #68
      01003960H   LINE      CODE     ---       #69
      01003963H   LINE      CODE     ---       #70
      01003966H   LINE      CODE     ---       #72
      01003969H   LINE      CODE     ---       #73
      0100396CH   LINE      CODE     ---       #74
      0100396FH   LINE      CODE     ---       #75
      01003972H   LINE      CODE     ---       #76
      01003975H   LINE      CODE     ---       #77
      01003978H   LINE      CODE     ---       #79
      ---         BLOCKEND  ---      ---       LVL=0

      01004124H   BLOCK     CODE     ---       LVL=0
      00000007H   SYMBOL    DATA     BYTE      dat
      01004124H   LINE      CODE     ---       #82
      01004124H   LINE      CODE     ---       #83
      01004124H   LINE      CODE     ---       #84
      01004126H   LINE      CODE     ---       #85
      01004129H   LINE      CODE     ---       #86
      0100412BH   LINE      CODE     ---       #87
      ---         BLOCKEND  ---      ---       LVL=0

      01003E1FH   BLOCK     CODE     ---       LVL=0
      00000015H   SYMBOL    DATA     ---       s
      01003E1FH   LINE      CODE     ---       #91
      01003E25H   LINE      CODE     ---       #92
      01003E25H   LINE      CODE     ---       #93
      01003E30H   LINE      CODE     ---       #94
      01003E30H   LINE      CODE     ---       #95
      01003E41H   LINE      CODE     ---       #96
      01003E43H   LINE      CODE     ---       #97
      ---         BLOCKEND  ---      ---       LVL=0

LX51 LINKER/LOCATER V4.66.93.0                                                        07/16/2024  15:05:47  PAGE 34


      01003979H   BLOCK     CODE     ---       LVL=0
      01003979H   LINE      CODE     ---       #98
      01003981H   LINE      CODE     ---       #100
      01003983H   LINE      CODE     ---       #101
      01003986H   LINE      CODE     ---       #102
      01003986H   LINE      CODE     ---       #103
      01003988H   LINE      CODE     ---       #104
      01003996H   LINE      CODE     ---       #105
      01003998H   LINE      CODE     ---       #106
      010039A3H   LINE      CODE     ---       #107
      010039A3H   LINE      CODE     ---       #108
      010039A6H   LINE      CODE     ---       #109
      010039A6H   LINE      CODE     ---       #110
      010039A6H   LINE      CODE     ---       #111
      010039A9H   LINE      CODE     ---       #112
      010039A9H   LINE      CODE     ---       #113
      010039ABH   LINE      CODE     ---       #114
      010039ABH   LINE      CODE     ---       #115
      010039ADH   LINE      CODE     ---       #116
      ---         BLOCKEND  ---      ---       LVL=0

      010040F9H   BLOCK     CODE     ---       LVL=0
      00000007H   SYMBOL    DATA     BYTE      dat
      010040F9H   LINE      CODE     ---       #119
      010040F9H   LINE      CODE     ---       #120
      010040F9H   LINE      CODE     ---       #121
      010040FBH   LINE      CODE     ---       #122
      01004100H   LINE      CODE     ---       #123
      01004103H   LINE      CODE     ---       #124
      ---         BLOCKEND  ---      ---       LVL=0

      01003EA8H   BLOCK     CODE     ---       LVL=0
      01003EA8H   BLOCK     CODE     NEAR LAB  LVL=1
      00000007H   SYMBOL    DATA     BYTE      k
      ---         BLOCKEND  ---      ---       LVL=1
      01003EA8H   LINE      CODE     ---       #125
      01003EA8H   LINE      CODE     ---       #126
      01003EA8H   LINE      CODE     ---       #128
      01003EB4H   LINE      CODE     ---       #129
      01003EB4H   LINE      CODE     ---       #130
      01003EC0H   LINE      CODE     ---       #131
      01003EC3H   LINE      CODE     ---       #132
      01003EC6H   LINE      CODE     ---       #133
      ---         BLOCKEND  ---      ---       LVL=0

      01000046H   BLOCK     CODE     ---       LVL=0
      01000046H   LINE      CODE     ---       #134
      0100004EH   LINE      CODE     ---       #136
      01000051H   LINE      CODE     ---       #137
      01000056H   LINE      CODE     ---       #138
      01000056H   LINE      CODE     ---       #139
      01000059H   LINE      CODE     ---       #140
      01000067H   LINE      CODE     ---       #141
      01000069H   LINE      CODE     ---       #143
      01000074H   LINE      CODE     ---       #144
      01000074H   LINE      CODE     ---       #145
      01000077H   LINE      CODE     ---       #146
      01000077H   LINE      CODE     ---       #147
      01000077H   LINE      CODE     ---       #148
      0100007CH   LINE      CODE     ---       #149
      0100007CH   LINE      CODE     ---       #150
      0100007FH   LINE      CODE     ---       #151
      0100007FH   LINE      CODE     ---       #152
      01000082H   LINE      CODE     ---       #153
      ---         BLOCKEND  ---      ---       LVL=0
LX51 LINKER/LOCATER V4.66.93.0                                                        07/16/2024  15:05:47  PAGE 35



      01004104H   BLOCK     CODE     ---       LVL=0
      00000007H   SYMBOL    DATA     BYTE      dat
      01004104H   LINE      CODE     ---       #156
      01004104H   LINE      CODE     ---       #157
      01004104H   LINE      CODE     ---       #158
      01004106H   LINE      CODE     ---       #159
      0100410BH   LINE      CODE     ---       #160
      0100410EH   LINE      CODE     ---       #161
      ---         BLOCKEND  ---      ---       LVL=0

      01003C7CH   BLOCK     CODE     ---       LVL=0
      00000024H   SYMBOL    DATA     ---       s
      01003C7CH   LINE      CODE     ---       #164
      01003C82H   LINE      CODE     ---       #165
      01003C82H   LINE      CODE     ---       #166
      01003C85H   LINE      CODE     ---       #167
      01003C90H   LINE      CODE     ---       #168
      01003C90H   LINE      CODE     ---       #169
      01003CA1H   LINE      CODE     ---       #170
      01003CA3H   LINE      CODE     ---       #171
      01003CA6H   LINE      CODE     ---       #172
      ---         BLOCKEND  ---      ---       LVL=0

      01003EC7H   BLOCK     CODE     ---       LVL=0
      01003EC7H   BLOCK     CODE     NEAR LAB  LVL=1
      00000007H   SYMBOL    DATA     BYTE      k
      ---         BLOCKEND  ---      ---       LVL=1
      01003EC7H   LINE      CODE     ---       #174
      01003EC7H   LINE      CODE     ---       #175
      01003EC7H   LINE      CODE     ---       #177
      01003ED3H   LINE      CODE     ---       #178
      01003ED3H   LINE      CODE     ---       #179
      01003EDFH   LINE      CODE     ---       #180
      01003EE2H   LINE      CODE     ---       #181
      01003EE5H   LINE      CODE     ---       #182
      ---         BLOCKEND  ---      ---       LVL=0

      010038B2H   BLOCK     CODE     ---       LVL=0
      010038B2H   LINE      CODE     ---       #184
      010038BAH   LINE      CODE     ---       #186
      010038BDH   LINE      CODE     ---       #187
      010038C2H   LINE      CODE     ---       #188
      010038C2H   LINE      CODE     ---       #189
      010038C5H   LINE      CODE     ---       #190
      010038D3H   LINE      CODE     ---       #191
      010038D5H   LINE      CODE     ---       #192
      010038E0H   LINE      CODE     ---       #193
      010038E0H   LINE      CODE     ---       #194
      010038E3H   LINE      CODE     ---       #195
      010038E3H   LINE      CODE     ---       #196
      010038E3H   LINE      CODE     ---       #197
      010038E8H   LINE      CODE     ---       #198
      010038E8H   LINE      CODE     ---       #199
      010038EBH   LINE      CODE     ---       #200
      010038EBH   LINE      CODE     ---       #201
      010038EEH   LINE      CODE     ---       #202
      ---         BLOCKEND  ---      ---       LVL=0

      0100410FH   BLOCK     CODE     ---       LVL=0
      00000007H   SYMBOL    DATA     BYTE      dat
      0100410FH   LINE      CODE     ---       #204
      0100410FH   LINE      CODE     ---       #205
      0100410FH   LINE      CODE     ---       #206
      01004111H   LINE      CODE     ---       #207
LX51 LINKER/LOCATER V4.66.93.0                                                        07/16/2024  15:05:47  PAGE 36


      01004116H   LINE      CODE     ---       #208
      01004119H   LINE      CODE     ---       #209
      ---         BLOCKEND  ---      ---       LVL=0

      01003CA7H   BLOCK     CODE     ---       LVL=0
      00000015H   SYMBOL    DATA     ---       s
      01003CA7H   LINE      CODE     ---       #211
      01003CADH   LINE      CODE     ---       #212
      01003CADH   LINE      CODE     ---       #213
      01003CB0H   LINE      CODE     ---       #214
      01003CBBH   LINE      CODE     ---       #215
      01003CBBH   LINE      CODE     ---       #216
      01003CCCH   LINE      CODE     ---       #217
      01003CCEH   LINE      CODE     ---       #218
      01003CD1H   LINE      CODE     ---       #219
      ---         BLOCKEND  ---      ---       LVL=0

      01003EE6H   BLOCK     CODE     ---       LVL=0
      01003EE6H   BLOCK     CODE     NEAR LAB  LVL=1
      00000007H   SYMBOL    DATA     BYTE      k
      ---         BLOCKEND  ---      ---       LVL=1
      01003EE6H   LINE      CODE     ---       #221
      01003EE6H   LINE      CODE     ---       #222
      01003EE6H   LINE      CODE     ---       #224
      01003EF2H   LINE      CODE     ---       #225
      01003EF2H   LINE      CODE     ---       #226
      01003EFEH   LINE      CODE     ---       #227
      01003F01H   LINE      CODE     ---       #228
      01003F04H   LINE      CODE     ---       #229
      ---         BLOCKEND  ---      ---       LVL=0

      010038F7H   BLOCK     CODE     ---       LVL=0
      010038F7H   LINE      CODE     ---       #232
      010038FFH   LINE      CODE     ---       #234
      01003902H   LINE      CODE     ---       #235
      01003907H   LINE      CODE     ---       #236
      01003907H   LINE      CODE     ---       #237
      0100390AH   LINE      CODE     ---       #238
      01003918H   LINE      CODE     ---       #239
      0100391AH   LINE      CODE     ---       #240
      01003925H   LINE      CODE     ---       #241
      01003925H   LINE      CODE     ---       #242
      01003928H   LINE      CODE     ---       #243
      01003928H   LINE      CODE     ---       #244
      01003928H   LINE      CODE     ---       #245
      0100392DH   LINE      CODE     ---       #246
      0100392DH   LINE      CODE     ---       #247
      01003930H   LINE      CODE     ---       #248
      01003930H   LINE      CODE     ---       #249
      01003933H   LINE      CODE     ---       #250
      ---         BLOCKEND  ---      ---       LVL=0

      ---         MODULE    ---      ---       NARFL2401
      00000014H   PUBLIC    DATA     BYTE      cmd
      00000013H   PUBLIC    DATA     ---       TxPayload
      00000012H   PUBLIC    DATA     ---       RxPayload
      0000000DH   PUBLIC    DATA     ---       TX_ADDRESS
      00000008H   PUBLIC    DATA     ---       RX_ADDRESS
      010039F3H   PUBLIC    CODE     ---       INT1_int
      0100405AH   PUBLIC    CODE     ---       RF_ReceDat
      01004089H   PUBLIC    CODE     ---       zhongduanyi
      01003DF8H   PUBLIC    CODE     ---       _NRF24L01_RxPacket_MA
      010039B6H   PUBLIC    CODE     ---       Set_RxMode_MA
      0000001BH   PUBLIC    DATA     BYTE      ?_NRF24L01_MA_Read_Buf?BYTE
      01003BEAH   PUBLIC    CODE     ---       _NRF24L01_MA_Read_Buf
LX51 LINKER/LOCATER V4.66.93.0                                                        07/16/2024  15:05:47  PAGE 37


      010040ECH   PUBLIC    CODE     ---       _NRF24L01_MA_Read_Reg
      0100409DH   PUBLIC    CODE     ---       _NRF24L01_MA_Write_Reg
      00000015H   PUBLIC    DATA     BYTE      ?_NRF24L01_MA_Write_Buf?BYTE
      01003C1DH   PUBLIC    CODE     ---       _NRF24L01_MA_Write_Buf
      01000016H   PUBLIC    CODE     ---       _SPI_RW
      01000003H   PUBLIC    CODE     ---       Init_NRF24L01_MA
      0100411AH   PUBLIC    CODE     ---       InitSPI
      000000D8H.2 SFRSYM    DATA     BIT       CCF2
      00000092H   SFRSYM    DATA     BYTE      P1M0
      00000093H   SFRSYM    DATA     BYTE      P0M1
      000000E0H.7 SFRSYM    DATA     BIT       ACC7
      00000096H   SFRSYM    DATA     BYTE      P2M0
      00000091H   SFRSYM    DATA     BYTE      P1M1
      00000080H   SFRSYM    DATA     BYTE      P0
      000000B2H   SFRSYM    DATA     BYTE      P3M0
      00000095H   SFRSYM    DATA     BYTE      P2M1
      00000090H   SFRSYM    DATA     BYTE      P1
      000000B4H   SFRSYM    DATA     BYTE      P4M0
      000000B1H   SFRSYM    DATA     BYTE      P3M1
      000000A0H   SFRSYM    DATA     BYTE      P2
      000000ABH   SFRSYM    DATA     BYTE      WKTCH
      000000CAH   SFRSYM    DATA     BYTE      P5M0
      000000B3H   SFRSYM    DATA     BYTE      P4M1
      000000B0H   SFRSYM    DATA     BYTE      P3
      000000B0H.4 SFRSYM    DATA     BIT       T0
      000000CCH   SFRSYM    DATA     BYTE      P6M0
      000000C9H   SFRSYM    DATA     BYTE      P5M1
      000000C0H   SFRSYM    DATA     BYTE      P4
      000000D0H.6 SFRSYM    DATA     BIT       AC
      000000B0H.5 SFRSYM    DATA     BIT       CLKOUT0
      000000B0H.5 SFRSYM    DATA     BIT       T1
      000000C6H   SFRSYM    DATA     BYTE      ISP_TRIG
      000000F6H   SFRSYM    DATA     BYTE      PWMIF
      000000E2H   SFRSYM    DATA     BYTE      P7M0
      000000CBH   SFRSYM    DATA     BYTE      P6M1
      000000C8H   SFRSYM    DATA     BYTE      P5
      000000B0H.4 SFRSYM    DATA     BIT       CLKOUT1
      000000A0H.4 SFRSYM    DATA     BIT       SPI_SS_2
      000000A8H.7 SFRSYM    DATA     BIT       EA
      000000E1H   SFRSYM    DATA     BYTE      P7M1
      000000E8H   SFRSYM    DATA     BYTE      P6
      000000C8H.4 SFRSYM    DATA     BIT       SPI_SS_3
      00000090H.4 SFRSYM    DATA     BIT       SPI_MISO
      00000090H.3 SFRSYM    DATA     BIT       SPI_MOSI
      00000090H.1 SFRSYM    DATA     BIT       CCP0
      000000AAH   SFRSYM    DATA     BYTE      WKTCL
      000000F8H   SFRSYM    DATA     BYTE      P7
      00000090H.0 SFRSYM    DATA     BIT       CCP1
      000000CEH   SFRSYM    DATA     BYTE      SPCTL
      00000080H.5 SFRSYM    DATA     BIT       led_r
      000000B0H.7 SFRSYM    DATA     BIT       CCP2
      000000D8H.7 SFRSYM    DATA     BIT       CF
      000000F5H   SFRSYM    DATA     BYTE      PWMCR
      000000F9H   SFRSYM    DATA     BYTE      CH
      000000A2H   SFRSYM    DATA     BYTE      P_SW1
      000000BAH   SFRSYM    DATA     BYTE      P_SW2
      000000A0H.1 SFRSYM    DATA     BIT       SPI_SCLK_2
      000000A8H.5 SFRSYM    DATA     BIT       EADC
      000000A8H   SFRSYM    DATA     BYTE      IE
      000000C0H.3 SFRSYM    DATA     BIT       SPI_SCLK_3
      000000E9H   SFRSYM    DATA     BYTE      CL
      000000C5H   SFRSYM    DATA     BYTE      IAP_CMD
      000000FAH   SFRSYM    DATA     BYTE      CCAP0H
      000000FBH   SFRSYM    DATA     BYTE      CCAP1H
      000000FCH   SFRSYM    DATA     BYTE      CCAP2H
LX51 LINKER/LOCATER V4.66.93.0                                                        07/16/2024  15:05:47  PAGE 38


      000000B6H   SFRSYM    DATA     BYTE      IPH2
      000000BDH   SFRSYM    DATA     BYTE      ADC_RES
      000000EAH   SFRSYM    DATA     BYTE      CCAP0L
      000000D8H.6 SFRSYM    DATA     BIT       CR
      000000B0H.7 SFRSYM    DATA     BIT       RD
      000000F7H   SFRSYM    DATA     BYTE      PWMFDCR
      000000EBH   SFRSYM    DATA     BYTE      CCAP1L
      000000DAH   SFRSYM    DATA     BYTE      CCAPM0
      000000ECH   SFRSYM    DATA     BYTE      CCAP2L
      000000DBH   SFRSYM    DATA     BYTE      CCAPM1
      000000DCH   SFRSYM    DATA     BYTE      CCAPM2
      000000A8H.4 SFRSYM    DATA     BIT       ES
      000000A0H.2 SFRSYM    DATA     BIT       SPI_MISO_2
      000000A0H.3 SFRSYM    DATA     BIT       SPI_MOSI_2
      000000B8H.5 SFRSYM    DATA     BIT       PADC
      000000B8H   SFRSYM    DATA     BYTE      IP
      000000C0H.1 SFRSYM    DATA     BIT       SPI_MISO_3
      000000C0H.0 SFRSYM    DATA     BIT       SPI_MOSI_3
      00000098H.0 SFRSYM    DATA     BIT       RI
      000000B0H.2 SFRSYM    DATA     BIT       INT0
      000000D0H.7 SFRSYM    DATA     BIT       CY
      000000B0H.3 SFRSYM    DATA     BIT       INT1
      00000098H.1 SFRSYM    DATA     BIT       TI
      00000097H   SFRSYM    DATA     BYTE      CLK_DIV
      000000C3H   SFRSYM    DATA     BYTE      IAP_ADDRH
      00000090H.0 SFRSYM    DATA     BIT       RXD2
      000000C5H   SFRSYM    DATA     BYTE      ISP_CMD
      00000090H.1 SFRSYM    DATA     BIT       TXD2
      000000B8H.4 SFRSYM    DATA     BIT       PS
      00000081H   SFRSYM    DATA     BYTE      SP
      000000D9H   SFRSYM    DATA     BYTE      CMOD
      000000D8H   SFRSYM    DATA     BYTE      CCON
      000000C4H   SFRSYM    DATA     BYTE      IAP_ADDRL
      000000B8H.7 SFRSYM    DATA     BIT       PPCA
      000000D0H.2 SFRSYM    DATA     BIT       OV
      000000E6H   SFRSYM    DATA     BYTE      CMPCR1
      000000B0H.6 SFRSYM    DATA     BIT       WR
      000000E7H   SFRSYM    DATA     BYTE      CMPCR2
      000000A8H.6 SFRSYM    DATA     BIT       ELVD
      00000080H.0 SFRSYM    DATA     BIT       P00
      000000BCH   SFRSYM    DATA     BYTE      ADC_CONTR
      00000099H   SFRSYM    DATA     BYTE      SBUF
      00000087H   SFRSYM    DATA     BYTE      PCON
      00000090H.0 SFRSYM    DATA     BIT       P10
      00000080H.1 SFRSYM    DATA     BIT       P01
      000000C3H   SFRSYM    DATA     BYTE      ISP_ADDRH
      000000A0H.0 SFRSYM    DATA     BIT       P20
      00000090H.1 SFRSYM    DATA     BIT       P11
      00000080H.2 SFRSYM    DATA     BIT       P02
      000000B0H.0 SFRSYM    DATA     BIT       P30
      000000A0H.1 SFRSYM    DATA     BIT       P21
      00000090H.2 SFRSYM    DATA     BIT       P12
      00000080H.3 SFRSYM    DATA     BIT       P03
      00000098H   SFRSYM    DATA     BYTE      SCON
      0000008FH   SFRSYM    DATA     BYTE      WAKE_CLKO
      000000C0H.0 SFRSYM    DATA     BIT       P40
      000000B0H.1 SFRSYM    DATA     BIT       P31
      000000A0H.2 SFRSYM    DATA     BIT       P22
      00000090H.3 SFRSYM    DATA     BIT       P13
      00000080H.4 SFRSYM    DATA     BIT       P04
      00000089H   SFRSYM    DATA     BYTE      TMOD
      00000088H   SFRSYM    DATA     BYTE      TCON
      000000C8H.0 SFRSYM    DATA     BIT       P50
      000000C0H.1 SFRSYM    DATA     BIT       P41
      000000B0H.2 SFRSYM    DATA     BIT       P32
LX51 LINKER/LOCATER V4.66.93.0                                                        07/16/2024  15:05:47  PAGE 39


      000000A0H.3 SFRSYM    DATA     BIT       P23
      00000090H.4 SFRSYM    DATA     BIT       P14
      00000080H.5 SFRSYM    DATA     BIT       P05
      000000C4H   SFRSYM    DATA     BYTE      ISP_ADDRL
      000000E8H.0 SFRSYM    DATA     BIT       P60
      000000C8H.1 SFRSYM    DATA     BIT       P51
      000000C0H.2 SFRSYM    DATA     BIT       P42
      000000B0H.3 SFRSYM    DATA     BIT       P33
      000000A0H.4 SFRSYM    DATA     BIT       P24
      00000090H.5 SFRSYM    DATA     BIT       P15
      00000080H.6 SFRSYM    DATA     BIT       P06
      000000B8H.6 SFRSYM    DATA     BIT       PLVD
      000000F8H.0 SFRSYM    DATA     BIT       P70
      000000E8H.1 SFRSYM    DATA     BIT       P61
      000000C8H.2 SFRSYM    DATA     BIT       P52
      000000C0H.3 SFRSYM    DATA     BIT       P43
      000000B0H.4 SFRSYM    DATA     BIT       P34
      000000A0H.5 SFRSYM    DATA     BIT       P25
      00000090H.6 SFRSYM    DATA     BIT       P16
      00000080H.7 SFRSYM    DATA     BIT       P07
      000000F8H.1 SFRSYM    DATA     BIT       P71
      000000E8H.2 SFRSYM    DATA     BIT       P62
      000000C8H.3 SFRSYM    DATA     BIT       P53
      000000C0H.4 SFRSYM    DATA     BIT       P44
      000000B0H.5 SFRSYM    DATA     BIT       P35
      000000A0H.6 SFRSYM    DATA     BIT       P26
      00000090H.7 SFRSYM    DATA     BIT       P17
      000000F8H.2 SFRSYM    DATA     BIT       P72
      000000E8H.3 SFRSYM    DATA     BIT       P63
      000000C8H.4 SFRSYM    DATA     BIT       P54
      000000C0H.5 SFRSYM    DATA     BIT       P45
      000000B0H.6 SFRSYM    DATA     BIT       P36
      000000A0H.7 SFRSYM    DATA     BIT       P27
      000000F8H.3 SFRSYM    DATA     BIT       P73
      000000E8H.4 SFRSYM    DATA     BIT       P64
      000000C8H.5 SFRSYM    DATA     BIT       P55
      000000C0H.6 SFRSYM    DATA     BIT       P46
      000000B0H.7 SFRSYM    DATA     BIT       P37
      000000F8H.4 SFRSYM    DATA     BIT       P74
      000000E8H.5 SFRSYM    DATA     BIT       P65
      000000C8H.6 SFRSYM    DATA     BIT       P56
      000000C0H.7 SFRSYM    DATA     BIT       P47
      000000F8H.5 SFRSYM    DATA     BIT       P75
      000000E8H.6 SFRSYM    DATA     BIT       P66
      000000C8H.7 SFRSYM    DATA     BIT       P57
      000000F8H.6 SFRSYM    DATA     BIT       P76
      000000E8H.7 SFRSYM    DATA     BIT       P67
      00000088H.1 SFRSYM    DATA     BIT       IE0
      000000A1H   SFRSYM    DATA     BYTE      BUS_SPEED
      000000F8H.7 SFRSYM    DATA     BIT       P77
      00000088H.3 SFRSYM    DATA     BIT       IE1
      000000AFH   SFRSYM    DATA     BYTE      IE2
      0000008EH   SFRSYM    DATA     BYTE      AUXR
      000000F0H   SFRSYM    DATA     BYTE      B
      000000C7H   SFRSYM    DATA     BYTE      IAP_CONTR
      000000F1H   SFRSYM    DATA     BYTE      PWMCFG
      000000E0H   SFRSYM    DATA     BYTE      ACC
      000000A8H.1 SFRSYM    DATA     BIT       ET0
      00000088H.5 SFRSYM    DATA     BIT       TF0
      000000A8H.3 SFRSYM    DATA     BIT       ET1
      0000008CH   SFRSYM    DATA     BYTE      RL_TH0
      00000088H.7 SFRSYM    DATA     BIT       TF1
      000000B5H   SFRSYM    DATA     BYTE      IP2
      0000008DH   SFRSYM    DATA     BYTE      RL_TH1
      00000098H.2 SFRSYM    DATA     BIT       RB8
LX51 LINKER/LOCATER V4.66.93.0                                                        07/16/2024  15:05:47  PAGE 40


      0000008CH   SFRSYM    DATA     BYTE      TH0
      000000D6H   SFRSYM    DATA     BYTE      RL_T2H
      0000008DH   SFRSYM    DATA     BYTE      TH1
      00000088H.0 SFRSYM    DATA     BIT       IT0
      000000A8H.0 SFRSYM    DATA     BIT       EX0
      000000D4H   SFRSYM    DATA     BYTE      RL_T3H
      000000D6H   SFRSYM    DATA     BYTE      TH2
      00000098H.3 SFRSYM    DATA     BIT       TB8
      000000D6H   SFRSYM    DATA     BYTE      T2H
      00000088H.2 SFRSYM    DATA     BIT       IT1
      000000A8H.2 SFRSYM    DATA     BIT       EX1
      000000D2H   SFRSYM    DATA     BYTE      RL_T4H
      000000D4H   SFRSYM    DATA     BYTE      TH3
      0000008AH   SFRSYM    DATA     BYTE      RL_TL0
      000000D4H   SFRSYM    DATA     BYTE      T3H
      000000D0H.0 SFRSYM    DATA     BIT       P
      000000D2H   SFRSYM    DATA     BYTE      TH4
      0000008BH   SFRSYM    DATA     BYTE      RL_TL1
      00000098H.7 SFRSYM    DATA     BIT       SM0
      000000D2H   SFRSYM    DATA     BYTE      T4H
      0000008AH   SFRSYM    DATA     BYTE      TL0
      000000D7H   SFRSYM    DATA     BYTE      RL_T2L
      00000098H.6 SFRSYM    DATA     BIT       SM1
      0000008BH   SFRSYM    DATA     BYTE      TL1
      000000D5H   SFRSYM    DATA     BYTE      RL_T3L
      000000D7H   SFRSYM    DATA     BYTE      TL2
      00000098H.5 SFRSYM    DATA     BIT       SM2
      000000D7H   SFRSYM    DATA     BYTE      T2L
      000000B0H.4 SFRSYM    DATA     BIT       en
      000000D3H   SFRSYM    DATA     BYTE      RL_T4L
      000000D5H   SFRSYM    DATA     BYTE      TL3
      000000D5H   SFRSYM    DATA     BYTE      T3L
      000000D3H   SFRSYM    DATA     BYTE      TL4
      000000D3H   SFRSYM    DATA     BYTE      T4L
      000000B8H.1 SFRSYM    DATA     BIT       PT0
      000000C7H   SFRSYM    DATA     BYTE      ISP_CONTR
      000000B8H.3 SFRSYM    DATA     BIT       PT1
      000000D0H.3 SFRSYM    DATA     BIT       RS0
      000000C2H   SFRSYM    DATA     BYTE      IAP_DATA
      00000088H.4 SFRSYM    DATA     BIT       TR0
      000000D0H.4 SFRSYM    DATA     BIT       RS1
      00000088H.6 SFRSYM    DATA     BIT       TR1
      000000C1H   SFRSYM    DATA     BYTE      WDT_CONTR
      000000B8H.0 SFRSYM    DATA     BIT       PX0
      000000B8H.2 SFRSYM    DATA     BIT       PX1
      000000F2H   SFRSYM    DATA     BYTE      PCA_PWM0
      000000F3H   SFRSYM    DATA     BYTE      PCA_PWM1
      000000F4H   SFRSYM    DATA     BYTE      PCA_PWM2
      0000009DH   SFRSYM    DATA     BYTE      P1ASF
      00000083H   SFRSYM    DATA     BYTE      DPH
      000000D1H   SFRSYM    DATA     BYTE      T3T4M
      000000D1H   SFRSYM    DATA     BYTE      T4T3M
      000000BEH   SFRSYM    DATA     BYTE      ADC_RESL
      00000082H   SFRSYM    DATA     BYTE      DPL
      000000B7H   SFRSYM    DATA     BYTE      IPH
      000000CDH   SFRSYM    DATA     BYTE      SPSTAT
      00000090H.2 SFRSYM    DATA     BIT       SPI_CS
      0000009BH   SFRSYM    DATA     BYTE      S2BUF
      00000097H   SFRSYM    DATA     BYTE      PCON2
      000000ADH   SFRSYM    DATA     BYTE      S3BUF
      00000085H   SFRSYM    DATA     BYTE      S4BUF
      00000098H.4 SFRSYM    DATA     BIT       REN
      0000009AH   SFRSYM    DATA     BYTE      S2CON
      000000ACH   SFRSYM    DATA     BYTE      S3CON
      000000C2H   SFRSYM    DATA     BYTE      ISP_DATA
LX51 LINKER/LOCATER V4.66.93.0                                                        07/16/2024  15:05:47  PAGE 41


      00000084H   SFRSYM    DATA     BYTE      S4CON
      000000B0H.3 SFRSYM    DATA     BIT       IRQ
      000000B9H   SFRSYM    DATA     BYTE      SADEN
      000000B0H.0 SFRSYM    DATA     BIT       RXD
      000000A9H   SFRSYM    DATA     BYTE      SADDR
      000000B0H.1 SFRSYM    DATA     BIT       TXD
      000000F0H.0 SFRSYM    DATA     BIT       B0
      000000C6H   SFRSYM    DATA     BYTE      IAP_TRIG
      000000A2H   SFRSYM    DATA     BYTE      AUXR1
      000000F0H.1 SFRSYM    DATA     BIT       B1
      00000090H.2 SFRSYM    DATA     BIT       SPI_SS
      0000008FH   SFRSYM    DATA     BYTE      AUXR2
      000000F0H.2 SFRSYM    DATA     BIT       B2
      000000F0H.3 SFRSYM    DATA     BIT       B3
      000000D0H.5 SFRSYM    DATA     BIT       F0
      000000F0H.4 SFRSYM    DATA     BIT       B4
      0000008FH   SFRSYM    DATA     BYTE      INT_CLKO
      000000D0H.1 SFRSYM    DATA     BIT       F1
      000000F0H.5 SFRSYM    DATA     BIT       B5
      000000F0H.6 SFRSYM    DATA     BIT       B6
      000000E0H.0 SFRSYM    DATA     BIT       ACC0
      000000F0H.7 SFRSYM    DATA     BIT       B7
      000000E0H.1 SFRSYM    DATA     BIT       ACC1
      000000E0H.2 SFRSYM    DATA     BIT       ACC2
      000000D0H   SFRSYM    DATA     BYTE      PSW
      000000E0H.3 SFRSYM    DATA     BIT       ACC3
      00000090H.5 SFRSYM    DATA     BIT       SPI_SCLK
      000000E0H.4 SFRSYM    DATA     BIT       ACC4
      000000D8H.0 SFRSYM    DATA     BIT       CCF0
      000000E0H.5 SFRSYM    DATA     BIT       ACC5
      000000D8H.1 SFRSYM    DATA     BIT       CCF1
      000000CFH   SFRSYM    DATA     BYTE      SPDAT
      00000094H   SFRSYM    DATA     BYTE      P0M0
      000000E0H.6 SFRSYM    DATA     BIT       ACC6

      0100411AH   BLOCK     CODE     ---       LVL=0
      0100411AH   LINE      CODE     ---       #88
      0100411AH   LINE      CODE     ---       #89
      0100411AH   LINE      CODE     ---       #90
      0100411DH   LINE      CODE     ---       #91
      01004120H   LINE      CODE     ---       #92
      01004123H   LINE      CODE     ---       #93
      ---         BLOCKEND  ---      ---       LVL=0

      01000003H   BLOCK     CODE     ---       LVL=0
      01000003H   LINE      CODE     ---       #96
      01000003H   LINE      CODE     ---       #97
      01000003H   LINE      CODE     ---       #98
      0100000AH   LINE      CODE     ---       #99
      0100000CH   LINE      CODE     ---       #100
      0100000EH   LINE      CODE     ---       #101
      01000010H   LINE      CODE     ---       #102
      ---         BLOCKEND  ---      ---       LVL=0

      01000016H   BLOCK     CODE     ---       LVL=0
      00000007H   SYMBOL    DATA     BYTE      byte
      01000016H   LINE      CODE     ---       #106
      01000016H   LINE      CODE     ---       #107
      01000016H   LINE      CODE     ---       #108
      01000018H   LINE      CODE     ---       #109
      0100001DH   LINE      CODE     ---       #110
      01000020H   LINE      CODE     ---       #111
      01000022H   LINE      CODE     ---       #112
      ---         BLOCKEND  ---      ---       LVL=0

LX51 LINKER/LOCATER V4.66.93.0                                                        07/16/2024  15:05:47  PAGE 42


      01003C1DH   BLOCK     CODE     ---       LVL=0
      00000007H   SYMBOL    DATA     BYTE      regaddr
      00000016H   SYMBOL    DATA     ---       pBuf
      00000019H   SYMBOL    DATA     BYTE      datalen
      01003C23H   BLOCK     CODE     NEAR LAB  LVL=1
      00000006H   SYMBOL    DATA     BYTE      status
      00000005H   SYMBOL    DATA     BYTE      u8_ctr
      ---         BLOCKEND  ---      ---       LVL=1
      01003C1DH   LINE      CODE     ---       #116
      01003C23H   LINE      CODE     ---       #117
      01003C23H   LINE      CODE     ---       #119
      01003C25H   LINE      CODE     ---       #120
      01003C2AH   LINE      CODE     ---       #121
      01003C32H   LINE      CODE     ---       #122
      01003C32H   LINE      CODE     ---       #123
      01003C47H   LINE      CODE     ---       #124
      01003C4AH   LINE      CODE     ---       #125
      01003C4CH   LINE      CODE     ---       #126
      01003C4EH   LINE      CODE     ---       #127
      ---         BLOCKEND  ---      ---       LVL=0

      0100409DH   BLOCK     CODE     ---       LVL=0
      00000007H   SYMBOL    DATA     BYTE      regaddr
      00000006H   SYMBOL    DATA     BYTE      dat
      0100409FH   BLOCK     CODE     NEAR LAB  LVL=1
      00000005H   SYMBOL    DATA     BYTE      status
      ---         BLOCKEND  ---      ---       LVL=1
      0100409DH   LINE      CODE     ---       #131
      0100409FH   LINE      CODE     ---       #132
      0100409FH   LINE      CODE     ---       #134
      010040A1H   LINE      CODE     ---       #135
      010040A6H   LINE      CODE     ---       #136
      010040ABH   LINE      CODE     ---       #137
      010040ADH   LINE      CODE     ---       #138
      010040AFH   LINE      CODE     ---       #139
      ---         BLOCKEND  ---      ---       LVL=0

      010040ECH   BLOCK     CODE     ---       LVL=0
      00000007H   SYMBOL    DATA     BYTE      regaddr
      010040ECH   BLOCK     CODE     NEAR LAB  LVL=1
      00000007H   SYMBOL    DATA     BYTE      reg_val
      ---         BLOCKEND  ---      ---       LVL=1
      010040ECH   LINE      CODE     ---       #143
      010040ECH   LINE      CODE     ---       #144
      010040ECH   LINE      CODE     ---       #146
      010040EEH   LINE      CODE     ---       #147
      010040F1H   LINE      CODE     ---       #148
      010040F6H   LINE      CODE     ---       #149
      010040F8H   LINE      CODE     ---       #150
      010040F8H   LINE      CODE     ---       #151
      ---         BLOCKEND  ---      ---       LVL=0

      01003BEAH   BLOCK     CODE     ---       LVL=0
      00000007H   SYMBOL    DATA     BYTE      regaddr
      0000001CH   SYMBOL    DATA     ---       pBuf
      0000001FH   SYMBOL    DATA     BYTE      datlen
      01003BF0H   BLOCK     CODE     NEAR LAB  LVL=1
      00000006H   SYMBOL    DATA     BYTE      status
      00000005H   SYMBOL    DATA     BYTE      u8_ctr
      ---         BLOCKEND  ---      ---       LVL=1
      01003BEAH   LINE      CODE     ---       #154
      01003BF0H   LINE      CODE     ---       #155
      01003BF0H   LINE      CODE     ---       #157
      01003BF2H   LINE      CODE     ---       #158
      01003BF7H   LINE      CODE     ---       #159
LX51 LINKER/LOCATER V4.66.93.0                                                        07/16/2024  15:05:47  PAGE 43


      01003BFFH   LINE      CODE     ---       #160
      01003BFFH   LINE      CODE     ---       #161
      01003C13H   LINE      CODE     ---       #162
      01003C16H   LINE      CODE     ---       #163
      01003C18H   LINE      CODE     ---       #164
      01003C1AH   LINE      CODE     ---       #166
      01003C1CH   LINE      CODE     ---       #167
      ---         BLOCKEND  ---      ---       LVL=0

      010039B6H   BLOCK     CODE     ---       LVL=0
      010039B6H   LINE      CODE     ---       #171
      010039B6H   LINE      CODE     ---       #172
      010039B6H   LINE      CODE     ---       #173
      010039B8H   LINE      CODE     ---       #174
      010039C6H   LINE      CODE     ---       #175
      010039CDH   LINE      CODE     ---       #176
      010039D4H   LINE      CODE     ---       #177
      010039DBH   LINE      CODE     ---       #178
      010039E2H   LINE      CODE     ---       #179
      010039E9H   LINE      CODE     ---       #180
      010039F0H   LINE      CODE     ---       #181
      010039F2H   LINE      CODE     ---       #182
      ---         BLOCKEND  ---      ---       LVL=0

      01003DF8H   BLOCK     CODE     ---       LVL=0
      00000001H   SYMBOL    DATA     ---       buf
      01003DF8H   BLOCK     CODE     NEAR LAB  LVL=1
      00000004H   SYMBOL    DATA     BYTE      state
      ---         BLOCKEND  ---      ---       LVL=1
      01003DF8H   LINE      CODE     ---       #185
      01003DF8H   LINE      CODE     ---       #186
      01003DF8H   LINE      CODE     ---       #188
      01003DFFH   LINE      CODE     ---       #189
      01003E06H   LINE      CODE     ---       #190
      01003E0AH   LINE      CODE     ---       #191
      01003E0AH   LINE      CODE     ---       #192
      01003E12H   LINE      CODE     ---       #193
      01003E19H   LINE      CODE     ---       #194
      01003E1CH   LINE      CODE     ---       #195
      01003E1CH   LINE      CODE     ---       #196
      01003E1EH   LINE      CODE     ---       #197
      ---         BLOCKEND  ---      ---       LVL=0

      01004089H   BLOCK     CODE     ---       LVL=0
      01004089H   LINE      CODE     ---       #198
      01004089H   LINE      CODE     ---       #199
      01004089H   LINE      CODE     ---       #200
      0100408BH   LINE      CODE     ---       #201
      0100408EH   LINE      CODE     ---       #202
      01004091H   LINE      CODE     ---       #203
      01004094H   LINE      CODE     ---       #205
      01004096H   LINE      CODE     ---       #206
      01004098H   LINE      CODE     ---       #207
      0100409AH   LINE      CODE     ---       #208
      0100409CH   LINE      CODE     ---       #209
      ---         BLOCKEND  ---      ---       LVL=0

      0100405AH   BLOCK     CODE     ---       LVL=0
      0100405AH   LINE      CODE     ---       #210
      0100405AH   LINE      CODE     ---       #211
      0100405AH   LINE      CODE     ---       #212
      01004068H   LINE      CODE     ---       #213
      01004068H   LINE      CODE     ---       #214
      0100406BH   LINE      CODE     ---       #215
      0100406DH   LINE      CODE     ---       #216
LX51 LINKER/LOCATER V4.66.93.0                                                        07/16/2024  15:05:47  PAGE 44


      01004073H   LINE      CODE     ---       #217
      01004073H   LINE      CODE     ---       #218
      ---         BLOCKEND  ---      ---       LVL=0

      010039F3H   BLOCK     CODE     ---       LVL=0
      010039F3H   LINE      CODE     ---       #220
      01003A10H   LINE      CODE     ---       #222
      01003A13H   LINE      CODE     ---       #223
      ---         BLOCKEND  ---      ---       LVL=0

      ---         MODULE    ---      ---       DUOJI
      01003DCEH   PUBLIC    CODE     ---       dancing
      01000379H   PUBLIC    CODE     ---       part_three
      01002542H   PUBLIC    CODE     ---       part_two
      01000096H   PUBLIC    CODE     ---       part_one
      01001FE2H   PUBLIC    CODE     ---       action87
      01003869H   PUBLIC    CODE     ---       action86
      01003120H   PUBLIC    CODE     ---       action85
      01003F97H   PUBLIC    CODE     ---       action84
      010034F1H   PUBLIC    CODE     ---       action83
      01003820H   PUBLIC    CODE     ---       action82
      01003F7AH   PUBLIC    CODE     ---       action81
      010034A0H   PUBLIC    CODE     ---       action80
      01001581H   PUBLIC    CODE     ---       action79
      0100223CH   PUBLIC    CODE     ---       action78
      01002302H   PUBLIC    CODE     ---       action77
      010037D7H   PUBLIC    CODE     ---       action76
      01002176H   PUBLIC    CODE     ---       action75
      01000C2EH   PUBLIC    CODE     ---       action73
      01003F5DH   PUBLIC    CODE     ---       action72
      01003DA4H   PUBLIC    CODE     ---       action71
      01003F40H   PUBLIC    CODE     ---       action70
      01003E66H   PUBLIC    CODE     ---       action69
      01001F17H   PUBLIC    CODE     ---       biaozhun1
      010013D2H   PUBLIC    CODE     ---       biaozhun
      010030CAH   PUBLIC    CODE     ---       action68
      01004074H   PUBLIC    CODE     ---       action67
      01003F23H   PUBLIC    CODE     ---       action66
      0100378EH   PUBLIC    CODE     ---       action65
      010012FAH   PUBLIC    CODE     ---       action63
      01003E44H   PUBLIC    CODE     ---       action62
      01003542H   PUBLIC    CODE     ---       action61
      01001222H   PUBLIC    CODE     ---       action60
      01001E4CH   PUBLIC    CODE     ---       action59
      01001D81H   PUBLIC    CODE     ---       action58
      01001CB6H   PUBLIC    CODE     ---       action57
      01001BEBH   PUBLIC    CODE     ---       action56
      01003745H   PUBLIC    CODE     ---       action55_1
      0100114AH   PUBLIC    CODE     ---       action55
      010036FCH   PUBLIC    CODE     ---       action54
      01000B4EH   PUBLIC    CODE     ---       action53
      01001072H   PUBLIC    CODE     ---       action52
      01000F9AH   PUBLIC    CODE     ---       action51
      010036B3H   PUBLIC    CODE     ---       action50
      01001B20H   PUBLIC    CODE     ---       action49
      01000026H   PUBLIC    CODE     ---       action48
      010026A7H   PUBLIC    CODE     ---       action47
      01001A55H   PUBLIC    CODE     ---       action46
      01002889H   PUBLIC    CODE     ---       action44
      0100366AH   PUBLIC    CODE     ---       action45
      010020ADH   PUBLIC    CODE     ---       action43
      01003BB3H   PUBLIC    CODE     ---       action42
      010027F4H   PUBLIC    CODE     ---       action41
      01003621H   PUBLIC    CODE     ---       action40
      01000EC2H   PUBLIC    CODE     ---       action39
LX51 LINKER/LOCATER V4.66.93.0                                                        07/16/2024  15:05:47  PAGE 45


      01002FC0H   PUBLIC    CODE     ---       action38
      01003074H   PUBLIC    CODE     ---       action37
      01003D7AH   PUBLIC    CODE     ---       action36
      0100344FH   PUBLIC    CODE     ---       action35
      01002489H   PUBLIC    CODE     ---       action34
      010033FEH   PUBLIC    CODE     ---       action31
      01003D50H   PUBLIC    CODE     ---       action30
      01002D21H   PUBLIC    CODE     ---       action29
      0100198AH   PUBLIC    CODE     ---       action28
      010025F6H   PUBLIC    CODE     ---       action27
      01000A6EH   PUBLIC    CODE     ---       action26
      0100098EH   PUBLIC    CODE     ---       action25
      01000DEAH   PUBLIC    CODE     ---       action24_4
      010018BFH   PUBLIC    CODE     ---       action24_3
      0100301EH   PUBLIC    CODE     ---       action24_2
      010035D8H   PUBLIC    CODE     ---       action24_1
      01003B7CH   PUBLIC    CODE     ---       action24
      01003B45H   PUBLIC    CODE     ---       action23
      01003B0EH   PUBLIC    CODE     ---       action22
      01003AD7H   PUBLIC    CODE     ---       action21
      01003AA0H   PUBLIC    CODE     ---       action20
      01003A69H   PUBLIC    CODE     ---       action19
      010008AEH   PUBLIC    CODE     ---       action18
      01003D26H   PUBLIC    CODE     ---       action17
      01003CFCH   PUBLIC    CODE     ---       action16
      0100358FH   PUBLIC    CODE     ---       action15
      010014AAH   PUBLIC    CODE     ---       action14
      010023C7H   PUBLIC    CODE     ---       action13
      01000D0EH   PUBLIC    CODE     ---       action12_1
      010033ADH   PUBLIC    CODE     ---       action12
      0100335CH   PUBLIC    CODE     ---       action11_1
      01002F62H   PUBLIC    CODE     ---       action11
      0100330BH   PUBLIC    CODE     ---       action10_2
      010032BAH   PUBLIC    CODE     ---       action10_1
      01002F04H   PUBLIC    CODE     ---       action10
      01002EA6H   PUBLIC    CODE     ---       action9
      01002E48H   PUBLIC    CODE     ---       action8
      01002DEAH   PUBLIC    CODE     ---       action7
      01002D8CH   PUBLIC    CODE     ---       action6
      010007CEH   PUBLIC    CODE     ---       action5
      01002CB6H   PUBLIC    CODE     ---       action3_4
      01003269H   PUBLIC    CODE     ---       action3_3
      01003218H   PUBLIC    CODE     ---       action3_2
      010031C7H   PUBLIC    CODE     ---       action3_1
      01001723H   PUBLIC    CODE     ---       action3
      01002B49H   PUBLIC    CODE     ---       ready
      01001654H   PUBLIC    CODE     ---       action2_1
      010017F2H   PUBLIC    CODE     ---       action2
      01003CD2H   PUBLIC    CODE     ---       action1_1
      01003176H   PUBLIC    CODE     ---       action1
      01002AC4H   PUBLIC    CODE     ---       start3
      010006EEH   PUBLIC    CODE     ---       start2
      0100291EH   PUBLIC    CODE     ---       start1
      0100060EH   PUBLIC    CODE     ---       start
      01003C4FH   PUBLIC    CODE     ---       action
      01002762H   PUBLIC    CODE     ---       _a
      000000D8H.2 SFRSYM    DATA     BIT       CCF2
      00000092H   SFRSYM    DATA     BYTE      P1M0
      00000093H   SFRSYM    DATA     BYTE      P0M1
      000000E0H.7 SFRSYM    DATA     BIT       ACC7
      00000096H   SFRSYM    DATA     BYTE      P2M0
      00000091H   SFRSYM    DATA     BYTE      P1M1
      00000080H   SFRSYM    DATA     BYTE      P0
      000000B2H   SFRSYM    DATA     BYTE      P3M0
      00000095H   SFRSYM    DATA     BYTE      P2M1
LX51 LINKER/LOCATER V4.66.93.0                                                        07/16/2024  15:05:47  PAGE 46


      00000090H   SFRSYM    DATA     BYTE      P1
      000000B4H   SFRSYM    DATA     BYTE      P4M0
      000000B1H   SFRSYM    DATA     BYTE      P3M1
      000000A0H   SFRSYM    DATA     BYTE      P2
      000000ABH   SFRSYM    DATA     BYTE      WKTCH
      000000CAH   SFRSYM    DATA     BYTE      P5M0
      000000B3H   SFRSYM    DATA     BYTE      P4M1
      000000B0H   SFRSYM    DATA     BYTE      P3
      000000B0H.4 SFRSYM    DATA     BIT       T0
      000000CCH   SFRSYM    DATA     BYTE      P6M0
      000000C9H   SFRSYM    DATA     BYTE      P5M1
      000000C0H   SFRSYM    DATA     BYTE      P4
      000000D0H.6 SFRSYM    DATA     BIT       AC
      000000B0H.5 SFRSYM    DATA     BIT       CLKOUT0
      000000B0H.5 SFRSYM    DATA     BIT       T1
      000000C6H   SFRSYM    DATA     BYTE      ISP_TRIG
      000000F6H   SFRSYM    DATA     BYTE      PWMIF
      000000E2H   SFRSYM    DATA     BYTE      P7M0
      000000CBH   SFRSYM    DATA     BYTE      P6M1
      000000C8H   SFRSYM    DATA     BYTE      P5
      000000B0H.4 SFRSYM    DATA     BIT       CLKOUT1
      000000A0H.4 SFRSYM    DATA     BIT       SPI_SS_2
      000000A8H.7 SFRSYM    DATA     BIT       EA
      000000E1H   SFRSYM    DATA     BYTE      P7M1
      000000E8H   SFRSYM    DATA     BYTE      P6
      000000C8H.4 SFRSYM    DATA     BIT       SPI_SS_3
      00000090H.4 SFRSYM    DATA     BIT       SPI_MISO
      00000090H.3 SFRSYM    DATA     BIT       SPI_MOSI
      00000090H.1 SFRSYM    DATA     BIT       CCP0
      000000AAH   SFRSYM    DATA     BYTE      WKTCL
      000000F8H   SFRSYM    DATA     BYTE      P7
      00000090H.0 SFRSYM    DATA     BIT       CCP1
      000000CEH   SFRSYM    DATA     BYTE      SPCTL
      000000B0H.7 SFRSYM    DATA     BIT       CCP2
      000000D8H.7 SFRSYM    DATA     BIT       CF
      000000F5H   SFRSYM    DATA     BYTE      PWMCR
      000000F9H   SFRSYM    DATA     BYTE      CH
      000000A2H   SFRSYM    DATA     BYTE      P_SW1
      000000BAH   SFRSYM    DATA     BYTE      P_SW2
      000000A0H.1 SFRSYM    DATA     BIT       SPI_SCLK_2
      000000A8H.5 SFRSYM    DATA     BIT       EADC
      000000A8H   SFRSYM    DATA     BYTE      IE
      000000C0H.3 SFRSYM    DATA     BIT       SPI_SCLK_3
      000000E9H   SFRSYM    DATA     BYTE      CL
      000000C5H   SFRSYM    DATA     BYTE      IAP_CMD
      000000FAH   SFRSYM    DATA     BYTE      CCAP0H
      000000FBH   SFRSYM    DATA     BYTE      CCAP1H
      000000FCH   SFRSYM    DATA     BYTE      CCAP2H
      000000B6H   SFRSYM    DATA     BYTE      IPH2
      000000BDH   SFRSYM    DATA     BYTE      ADC_RES
      000000EAH   SFRSYM    DATA     BYTE      CCAP0L
      000000D8H.6 SFRSYM    DATA     BIT       CR
      000000B0H.7 SFRSYM    DATA     BIT       RD
      000000F7H   SFRSYM    DATA     BYTE      PWMFDCR
      000000EBH   SFRSYM    DATA     BYTE      CCAP1L
      000000DAH   SFRSYM    DATA     BYTE      CCAPM0
      000000ECH   SFRSYM    DATA     BYTE      CCAP2L
      000000DBH   SFRSYM    DATA     BYTE      CCAPM1
      000000DCH   SFRSYM    DATA     BYTE      CCAPM2
      000000A8H.4 SFRSYM    DATA     BIT       ES
      000000A0H.2 SFRSYM    DATA     BIT       SPI_MISO_2
      000000A0H.3 SFRSYM    DATA     BIT       SPI_MOSI_2
      000000B8H.5 SFRSYM    DATA     BIT       PADC
      000000B8H   SFRSYM    DATA     BYTE      IP
      000000C0H.1 SFRSYM    DATA     BIT       SPI_MISO_3
LX51 LINKER/LOCATER V4.66.93.0                                                        07/16/2024  15:05:47  PAGE 47


      000000C0H.0 SFRSYM    DATA     BIT       SPI_MOSI_3
      00000098H.0 SFRSYM    DATA     BIT       RI
      000000B0H.2 SFRSYM    DATA     BIT       INT0
      000000D0H.7 SFRSYM    DATA     BIT       CY
      000000B0H.3 SFRSYM    DATA     BIT       INT1
      00000098H.1 SFRSYM    DATA     BIT       TI
      00000097H   SFRSYM    DATA     BYTE      CLK_DIV
      000000C3H   SFRSYM    DATA     BYTE      IAP_ADDRH
      00000090H.0 SFRSYM    DATA     BIT       RXD2
      000000C5H   SFRSYM    DATA     BYTE      ISP_CMD
      00000090H.1 SFRSYM    DATA     BIT       TXD2
      000000B8H.4 SFRSYM    DATA     BIT       PS
      00000081H   SFRSYM    DATA     BYTE      SP
      000000D9H   SFRSYM    DATA     BYTE      CMOD
      000000D8H   SFRSYM    DATA     BYTE      CCON
      000000C4H   SFRSYM    DATA     BYTE      IAP_ADDRL
      000000B8H.7 SFRSYM    DATA     BIT       PPCA
      000000D0H.2 SFRSYM    DATA     BIT       OV
      000000E6H   SFRSYM    DATA     BYTE      CMPCR1
      000000B0H.6 SFRSYM    DATA     BIT       WR
      000000E7H   SFRSYM    DATA     BYTE      CMPCR2
      000000A8H.6 SFRSYM    DATA     BIT       ELVD
      00000080H.0 SFRSYM    DATA     BIT       P00
      000000BCH   SFRSYM    DATA     BYTE      ADC_CONTR
      00000099H   SFRSYM    DATA     BYTE      SBUF
      00000087H   SFRSYM    DATA     BYTE      PCON
      00000090H.0 SFRSYM    DATA     BIT       P10
      00000080H.1 SFRSYM    DATA     BIT       P01
      000000C3H   SFRSYM    DATA     BYTE      ISP_ADDRH
      000000A0H.0 SFRSYM    DATA     BIT       P20
      00000090H.1 SFRSYM    DATA     BIT       P11
      00000080H.2 SFRSYM    DATA     BIT       P02
      000000B0H.0 SFRSYM    DATA     BIT       P30
      000000A0H.1 SFRSYM    DATA     BIT       P21
      00000090H.2 SFRSYM    DATA     BIT       P12
      00000080H.3 SFRSYM    DATA     BIT       P03
      00000098H   SFRSYM    DATA     BYTE      SCON
      0000008FH   SFRSYM    DATA     BYTE      WAKE_CLKO
      000000C0H.0 SFRSYM    DATA     BIT       P40
      000000B0H.1 SFRSYM    DATA     BIT       P31
      000000A0H.2 SFRSYM    DATA     BIT       P22
      00000090H.3 SFRSYM    DATA     BIT       P13
      00000080H.4 SFRSYM    DATA     BIT       P04
      00000089H   SFRSYM    DATA     BYTE      TMOD
      00000088H   SFRSYM    DATA     BYTE      TCON
      000000C8H.0 SFRSYM    DATA     BIT       P50
      000000C0H.1 SFRSYM    DATA     BIT       P41
      000000B0H.2 SFRSYM    DATA     BIT       P32
      000000A0H.3 SFRSYM    DATA     BIT       P23
      00000090H.4 SFRSYM    DATA     BIT       P14
      00000080H.5 SFRSYM    DATA     BIT       P05
      000000C4H   SFRSYM    DATA     BYTE      ISP_ADDRL
      000000E8H.0 SFRSYM    DATA     BIT       P60
      000000C8H.1 SFRSYM    DATA     BIT       P51
      000000C0H.2 SFRSYM    DATA     BIT       P42
      000000B0H.3 SFRSYM    DATA     BIT       P33
      000000A0H.4 SFRSYM    DATA     BIT       P24
      00000090H.5 SFRSYM    DATA     BIT       P15
      00000080H.6 SFRSYM    DATA     BIT       P06
      000000B8H.6 SFRSYM    DATA     BIT       PLVD
      000000F8H.0 SFRSYM    DATA     BIT       P70
      000000E8H.1 SFRSYM    DATA     BIT       P61
      000000C8H.2 SFRSYM    DATA     BIT       P52
      000000C0H.3 SFRSYM    DATA     BIT       P43
      000000B0H.4 SFRSYM    DATA     BIT       P34
LX51 LINKER/LOCATER V4.66.93.0                                                        07/16/2024  15:05:47  PAGE 48


      000000A0H.5 SFRSYM    DATA     BIT       P25
      00000090H.6 SFRSYM    DATA     BIT       P16
      00000080H.7 SFRSYM    DATA     BIT       P07
      000000F8H.1 SFRSYM    DATA     BIT       P71
      000000E8H.2 SFRSYM    DATA     BIT       P62
      000000C8H.3 SFRSYM    DATA     BIT       P53
      000000C0H.4 SFRSYM    DATA     BIT       P44
      000000B0H.5 SFRSYM    DATA     BIT       P35
      000000A0H.6 SFRSYM    DATA     BIT       P26
      00000090H.7 SFRSYM    DATA     BIT       P17
      000000F8H.2 SFRSYM    DATA     BIT       P72
      000000E8H.3 SFRSYM    DATA     BIT       P63
      000000C8H.4 SFRSYM    DATA     BIT       P54
      000000C0H.5 SFRSYM    DATA     BIT       P45
      000000B0H.6 SFRSYM    DATA     BIT       P36
      000000A0H.7 SFRSYM    DATA     BIT       P27
      000000F8H.3 SFRSYM    DATA     BIT       P73
      000000E8H.4 SFRSYM    DATA     BIT       P64
      000000C8H.5 SFRSYM    DATA     BIT       P55
      000000C0H.6 SFRSYM    DATA     BIT       P46
      000000B0H.7 SFRSYM    DATA     BIT       P37
      000000F8H.4 SFRSYM    DATA     BIT       P74
      000000E8H.5 SFRSYM    DATA     BIT       P65
      000000C8H.6 SFRSYM    DATA     BIT       P56
      000000C0H.7 SFRSYM    DATA     BIT       P47
      000000F8H.5 SFRSYM    DATA     BIT       P75
      000000E8H.6 SFRSYM    DATA     BIT       P66
      000000C8H.7 SFRSYM    DATA     BIT       P57
      000000F8H.6 SFRSYM    DATA     BIT       P76
      000000E8H.7 SFRSYM    DATA     BIT       P67
      00000088H.1 SFRSYM    DATA     BIT       IE0
      000000A1H   SFRSYM    DATA     BYTE      BUS_SPEED
      000000F8H.7 SFRSYM    DATA     BIT       P77
      00000088H.3 SFRSYM    DATA     BIT       IE1
      000000AFH   SFRSYM    DATA     BYTE      IE2
      0000008EH   SFRSYM    DATA     BYTE      AUXR
      000000F0H   SFRSYM    DATA     BYTE      B
      000000C7H   SFRSYM    DATA     BYTE      IAP_CONTR
      00000080H.4 SFRSYM    DATA     BIT       OE1
      00000080H.5 SFRSYM    DATA     BIT       OE2
      000000F1H   SFRSYM    DATA     BYTE      PWMCFG
      000000E0H   SFRSYM    DATA     BYTE      ACC
      000000A8H.1 SFRSYM    DATA     BIT       ET0
      00000088H.5 SFRSYM    DATA     BIT       TF0
      000000A8H.3 SFRSYM    DATA     BIT       ET1
      0000008CH   SFRSYM    DATA     BYTE      RL_TH0
      00000088H.7 SFRSYM    DATA     BIT       TF1
      000000B5H   SFRSYM    DATA     BYTE      IP2
      0000008DH   SFRSYM    DATA     BYTE      RL_TH1
      00000098H.2 SFRSYM    DATA     BIT       RB8
      0000008CH   SFRSYM    DATA     BYTE      TH0
      000000D6H   SFRSYM    DATA     BYTE      RL_T2H
      0000008DH   SFRSYM    DATA     BYTE      TH1
      00000088H.0 SFRSYM    DATA     BIT       IT0
      000000A8H.0 SFRSYM    DATA     BIT       EX0
      000000D4H   SFRSYM    DATA     BYTE      RL_T3H
      000000D6H   SFRSYM    DATA     BYTE      TH2
      00000098H.3 SFRSYM    DATA     BIT       TB8
      000000D6H   SFRSYM    DATA     BYTE      T2H
      00000088H.2 SFRSYM    DATA     BIT       IT1
      000000A8H.2 SFRSYM    DATA     BIT       EX1
      000000D2H   SFRSYM    DATA     BYTE      RL_T4H
      000000D4H   SFRSYM    DATA     BYTE      TH3
      0000008AH   SFRSYM    DATA     BYTE      RL_TL0
      000000D4H   SFRSYM    DATA     BYTE      T3H
LX51 LINKER/LOCATER V4.66.93.0                                                        07/16/2024  15:05:47  PAGE 49


      000000D0H.0 SFRSYM    DATA     BIT       P
      000000D2H   SFRSYM    DATA     BYTE      TH4
      0000008BH   SFRSYM    DATA     BYTE      RL_TL1
      00000098H.7 SFRSYM    DATA     BIT       SM0
      000000D2H   SFRSYM    DATA     BYTE      T4H
      0000008AH   SFRSYM    DATA     BYTE      TL0
      000000D7H   SFRSYM    DATA     BYTE      RL_T2L
      00000098H.6 SFRSYM    DATA     BIT       SM1
      0000008BH   SFRSYM    DATA     BYTE      TL1
      000000D5H   SFRSYM    DATA     BYTE      RL_T3L
      000000D7H   SFRSYM    DATA     BYTE      TL2
      00000098H.5 SFRSYM    DATA     BIT       SM2
      000000D7H   SFRSYM    DATA     BYTE      T2L
      000000D3H   SFRSYM    DATA     BYTE      RL_T4L
      000000D5H   SFRSYM    DATA     BYTE      TL3
      000000D5H   SFRSYM    DATA     BYTE      T3L
      000000D3H   SFRSYM    DATA     BYTE      TL4
      000000D3H   SFRSYM    DATA     BYTE      T4L
      000000B8H.1 SFRSYM    DATA     BIT       PT0
      000000C7H   SFRSYM    DATA     BYTE      ISP_CONTR
      000000B8H.3 SFRSYM    DATA     BIT       PT1
      000000D0H.3 SFRSYM    DATA     BIT       RS0
      000000C2H   SFRSYM    DATA     BYTE      IAP_DATA
      00000088H.4 SFRSYM    DATA     BIT       TR0
      000000D0H.4 SFRSYM    DATA     BIT       RS1
      00000088H.6 SFRSYM    DATA     BIT       TR1
      000000C1H   SFRSYM    DATA     BYTE      WDT_CONTR
      000000B8H.0 SFRSYM    DATA     BIT       PX0
      000000B8H.2 SFRSYM    DATA     BIT       PX1
      000000F2H   SFRSYM    DATA     BYTE      PCA_PWM0
      000000F3H   SFRSYM    DATA     BYTE      PCA_PWM1
      000000F4H   SFRSYM    DATA     BYTE      PCA_PWM2
      0000009DH   SFRSYM    DATA     BYTE      P1ASF
      00000083H   SFRSYM    DATA     BYTE      DPH
      000000D1H   SFRSYM    DATA     BYTE      T3T4M
      000000D1H   SFRSYM    DATA     BYTE      T4T3M
      000000BEH   SFRSYM    DATA     BYTE      ADC_RESL
      00000082H   SFRSYM    DATA     BYTE      DPL
      000000B7H   SFRSYM    DATA     BYTE      IPH
      000000CDH   SFRSYM    DATA     BYTE      SPSTAT
      0000009BH   SFRSYM    DATA     BYTE      S2BUF
      00000097H   SFRSYM    DATA     BYTE      PCON2
      000000ADH   SFRSYM    DATA     BYTE      S3BUF
      00000085H   SFRSYM    DATA     BYTE      S4BUF
      00000098H.4 SFRSYM    DATA     BIT       REN
      0000009AH   SFRSYM    DATA     BYTE      S2CON
      000000ACH   SFRSYM    DATA     BYTE      S3CON
      000000C2H   SFRSYM    DATA     BYTE      ISP_DATA
      00000084H   SFRSYM    DATA     BYTE      S4CON
      000000B9H   SFRSYM    DATA     BYTE      SADEN
      000000B0H.0 SFRSYM    DATA     BIT       RXD
      000000A9H   SFRSYM    DATA     BYTE      SADDR
      000000B0H.1 SFRSYM    DATA     BIT       TXD
      000000F0H.0 SFRSYM    DATA     BIT       B0
      000000C6H   SFRSYM    DATA     BYTE      IAP_TRIG
      000000A2H   SFRSYM    DATA     BYTE      AUXR1
      000000F0H.1 SFRSYM    DATA     BIT       B1
      00000090H.2 SFRSYM    DATA     BIT       SPI_SS
      0000008FH   SFRSYM    DATA     BYTE      AUXR2
      000000F0H.2 SFRSYM    DATA     BIT       B2
      000000F0H.3 SFRSYM    DATA     BIT       B3
      000000D0H.5 SFRSYM    DATA     BIT       F0
      000000F0H.4 SFRSYM    DATA     BIT       B4
      0000008FH   SFRSYM    DATA     BYTE      INT_CLKO
      000000D0H.1 SFRSYM    DATA     BIT       F1
LX51 LINKER/LOCATER V4.66.93.0                                                        07/16/2024  15:05:47  PAGE 50


      000000F0H.5 SFRSYM    DATA     BIT       B5
      000000F0H.6 SFRSYM    DATA     BIT       B6
      000000E0H.0 SFRSYM    DATA     BIT       ACC0
      000000F0H.7 SFRSYM    DATA     BIT       B7
      000000E0H.1 SFRSYM    DATA     BIT       ACC1
      000000E0H.2 SFRSYM    DATA     BIT       ACC2
      000000D0H   SFRSYM    DATA     BYTE      PSW
      000000E0H.3 SFRSYM    DATA     BIT       ACC3
      00000090H.5 SFRSYM    DATA     BIT       SPI_SCLK
      000000E0H.4 SFRSYM    DATA     BIT       ACC4
      000000D8H.0 SFRSYM    DATA     BIT       CCF0
      000000E0H.5 SFRSYM    DATA     BIT       ACC5
      000000D8H.1 SFRSYM    DATA     BIT       CCF1
      000000CFH   SFRSYM    DATA     BYTE      SPDAT
      00000094H   SFRSYM    DATA     BYTE      P0M0
      000000E0H.6 SFRSYM    DATA     BIT       ACC6

      01002758H   BLOCK     CODE     ---       LVL=0
      ---         BLOCKEND  ---      ---       LVL=0

      01002762H   BLOCK     CODE     ---       LVL=0
      00000015H   SYMBOL    DATA     BYTE      ID
      00000016H   SYMBOL    DATA     WORD      speed
      00000018H   SYMBOL    DATA     WORD      position
      0000001AH   SYMBOL    DATA     BYTE      temp_sum
      0100276CH   BLOCK     CODE     NEAR LAB  LVL=1
      0000001AH   SYMBOL    DATA     BYTE      temp_sum
      ---         BLOCKEND  ---      ---       LVL=1
      01002762H   LINE      CODE     ---       #7
      0100276CH   LINE      CODE     ---       #8
      0100276CH   LINE      CODE     ---       #9
      0100276FH   LINE      CODE     ---       #10
      0100277AH   LINE      CODE     ---       #11
      01002780H   LINE      CODE     ---       #12
      0100278BH   LINE      CODE     ---       #13
      01002791H   LINE      CODE     ---       #14
      010027A3H   LINE      CODE     ---       #15
      010027A6H   LINE      CODE     ---       #16
      010027A9H   LINE      CODE     ---       #17
      010027ABH   LINE      CODE     ---       #18
      010027ADH   LINE      CODE     ---       #19
      010027B2H   LINE      CODE     ---       #20
      010027B7H   LINE      CODE     ---       #21
      010027BCH   LINE      CODE     ---       #22
      010027C1H   LINE      CODE     ---       #23
      010027C6H   LINE      CODE     ---       #24
      010027CBH   LINE      CODE     ---       #25
      010027D0H   LINE      CODE     ---       #26
      010027D6H   LINE      CODE     ---       #27
      010027DBH   LINE      CODE     ---       #28
      010027E1H   LINE      CODE     ---       #29
      010027E6H   LINE      CODE     ---       #30
      010027E9H   LINE      CODE     ---       #31
      010027EBH   LINE      CODE     ---       #32
      010027EDH   LINE      CODE     ---       #33
      ---         BLOCKEND  ---      ---       LVL=0

      01003C4FH   BLOCK     CODE     ---       LVL=0
      01003C4FH   LINE      CODE     ---       #35
      01003C4FH   LINE      CODE     ---       #36
      01003C4FH   LINE      CODE     ---       #37
      01003C52H   LINE      CODE     ---       #38
      01003C54H   LINE      CODE     ---       #39
      01003C56H   LINE      CODE     ---       #40
      01003C5BH   LINE      CODE     ---       #41
LX51 LINKER/LOCATER V4.66.93.0                                                        07/16/2024  15:05:47  PAGE 51


      01003C60H   LINE      CODE     ---       #42
      01003C65H   LINE      CODE     ---       #43
      01003C6AH   LINE      CODE     ---       #44
      01003C6FH   LINE      CODE     ---       #45
      01003C74H   LINE      CODE     ---       #46
      01003C77H   LINE      CODE     ---       #47
      01003C79H   LINE      CODE     ---       #48
      01003C7BH   LINE      CODE     ---       #49
      ---         BLOCKEND  ---      ---       LVL=0

      0100060EH   BLOCK     CODE     ---       LVL=0
      0100060EH   LINE      CODE     ---       #51
      0100060EH   LINE      CODE     ---       #52
      0100060EH   LINE      CODE     ---       #53
      01000642H   LINE      CODE     ---       #54
      01000676H   LINE      CODE     ---       #55
      010006AAH   LINE      CODE     ---       #56
      010006DEH   LINE      CODE     ---       #57
      ---         BLOCKEND  ---      ---       LVL=0

      0100291EH   BLOCK     CODE     ---       LVL=0
      0100291EH   LINE      CODE     ---       #59
      0100291EH   LINE      CODE     ---       #60
      0100291EH   LINE      CODE     ---       #61
      01002952H   LINE      CODE     ---       #62
      01002986H   LINE      CODE     ---       #63
      ---         BLOCKEND  ---      ---       LVL=0

      010006EEH   BLOCK     CODE     ---       LVL=0
      010006EEH   LINE      CODE     ---       #65
      010006EEH   LINE      CODE     ---       #66
      010006EEH   LINE      CODE     ---       #67
      01000722H   LINE      CODE     ---       #68
      01000756H   LINE      CODE     ---       #69
      0100078AH   LINE      CODE     ---       #70
      010007BEH   LINE      CODE     ---       #71
      ---         BLOCKEND  ---      ---       LVL=0

      01002AC4H   BLOCK     CODE     ---       LVL=0
      01002AC4H   LINE      CODE     ---       #73
      01002AC4H   LINE      CODE     ---       #74
      01002AC4H   LINE      CODE     ---       #75
      01002AEBH   LINE      CODE     ---       #76
      01002B1FH   LINE      CODE     ---       #77
      ---         BLOCKEND  ---      ---       LVL=0

      01003176H   BLOCK     CODE     ---       LVL=0
      01003176H   LINE      CODE     ---       #79
      01003176H   LINE      CODE     ---       #80
      01003176H   LINE      CODE     ---       #81
      0100319DH   LINE      CODE     ---       #82
      ---         BLOCKEND  ---      ---       LVL=0

      01003CD2H   BLOCK     CODE     ---       LVL=0
      01003CD2H   LINE      CODE     ---       #84
      01003CD2H   LINE      CODE     ---       #85
      01003CD2H   LINE      CODE     ---       #86
      ---         BLOCKEND  ---      ---       LVL=0

      010017F2H   BLOCK     CODE     ---       LVL=0
      010017F2H   LINE      CODE     ---       #89
      010017F2H   LINE      CODE     ---       #90
      010017F2H   LINE      CODE     ---       #91
      01001826H   LINE      CODE     ---       #92
      0100185AH   LINE      CODE     ---       #93
LX51 LINKER/LOCATER V4.66.93.0                                                        07/16/2024  15:05:47  PAGE 52


      01001888H   LINE      CODE     ---       #94
      ---         BLOCKEND  ---      ---       LVL=0

      01001654H   BLOCK     CODE     ---       LVL=0
      01001654H   LINE      CODE     ---       #97
      01001654H   LINE      CODE     ---       #98
      01001654H   LINE      CODE     ---       #99
      01001688H   LINE      CODE     ---       #100
      010016BCH   LINE      CODE     ---       #101
      010016ECH   LINE      CODE     ---       #102
      ---         BLOCKEND  ---      ---       LVL=0

      01002B49H   BLOCK     CODE     ---       LVL=0
      01002B49H   LINE      CODE     ---       #104
      01002B49H   LINE      CODE     ---       #105
      01002B49H   LINE      CODE     ---       #106
      01002B70H   LINE      CODE     ---       #107
      01002BA4H   LINE      CODE     ---       #108
      ---         BLOCKEND  ---      ---       LVL=0

      01001723H   BLOCK     CODE     ---       LVL=0
      01001723H   LINE      CODE     ---       #110
      01001723H   LINE      CODE     ---       #111
      01001723H   LINE      CODE     ---       #112
      01001757H   LINE      CODE     ---       #113
      0100178BH   LINE      CODE     ---       #114
      010017BBH   LINE      CODE     ---       #115
      ---         BLOCKEND  ---      ---       LVL=0

      010031C7H   BLOCK     CODE     ---       LVL=0
      010031C7H   LINE      CODE     ---       #117
      010031C7H   LINE      CODE     ---       #118
      010031C7H   LINE      CODE     ---       #119
      010031EEH   LINE      CODE     ---       #120
      ---         BLOCKEND  ---      ---       LVL=0

      01003218H   BLOCK     CODE     ---       LVL=0
      01003218H   LINE      CODE     ---       #122
      01003218H   LINE      CODE     ---       #123
      01003218H   LINE      CODE     ---       #124
      0100323FH   LINE      CODE     ---       #125
      ---         BLOCKEND  ---      ---       LVL=0

      01003269H   BLOCK     CODE     ---       LVL=0
      01003269H   LINE      CODE     ---       #127
      01003269H   LINE      CODE     ---       #128
      01003269H   LINE      CODE     ---       #129
      01003290H   LINE      CODE     ---       #130
      ---         BLOCKEND  ---      ---       LVL=0

      01002CB6H   BLOCK     CODE     ---       LVL=0
      01002CB6H   LINE      CODE     ---       #132
      01002CB6H   LINE      CODE     ---       #133
      01002CB6H   LINE      CODE     ---       #134
      01002CEAH   LINE      CODE     ---       #135
      ---         BLOCKEND  ---      ---       LVL=0

      010007CEH   BLOCK     CODE     ---       LVL=0
      010007CEH   LINE      CODE     ---       #138
      010007CEH   LINE      CODE     ---       #139
      010007CEH   LINE      CODE     ---       #140
      01000802H   LINE      CODE     ---       #141
      01000836H   LINE      CODE     ---       #142
      0100086AH   LINE      CODE     ---       #143
      0100089EH   LINE      CODE     ---       #144
LX51 LINKER/LOCATER V4.66.93.0                                                        07/16/2024  15:05:47  PAGE 53


      ---         BLOCKEND  ---      ---       LVL=0

      01002D8CH   BLOCK     CODE     ---       LVL=0
      01002D8CH   LINE      CODE     ---       #146
      01002D8CH   LINE      CODE     ---       #147
      01002D8CH   LINE      CODE     ---       #148
      01002DC0H   LINE      CODE     ---       #149
      ---         BLOCKEND  ---      ---       LVL=0

      01002DEAH   BLOCK     CODE     ---       LVL=0
      01002DEAH   LINE      CODE     ---       #151
      01002DEAH   LINE      CODE     ---       #152
      01002DEAH   LINE      CODE     ---       #153
      01002E1EH   LINE      CODE     ---       #154
      ---         BLOCKEND  ---      ---       LVL=0

      01002E48H   BLOCK     CODE     ---       LVL=0
      01002E48H   LINE      CODE     ---       #156
      01002E48H   LINE      CODE     ---       #157
      01002E48H   LINE      CODE     ---       #158
      01002E7CH   LINE      CODE     ---       #159
      ---         BLOCKEND  ---      ---       LVL=0

      01002EA6H   BLOCK     CODE     ---       LVL=0
      01002EA6H   LINE      CODE     ---       #161
      01002EA6H   LINE      CODE     ---       #162
      01002EA6H   LINE      CODE     ---       #163
      01002EDAH   LINE      CODE     ---       #164
      ---         BLOCKEND  ---      ---       LVL=0

      01002F04H   BLOCK     CODE     ---       LVL=0
      01002F04H   LINE      CODE     ---       #166
      01002F04H   LINE      CODE     ---       #167
      01002F04H   LINE      CODE     ---       #168
      01002F38H   LINE      CODE     ---       #169
      ---         BLOCKEND  ---      ---       LVL=0

      010032BAH   BLOCK     CODE     ---       LVL=0
      010032BAH   LINE      CODE     ---       #171
      010032BAH   LINE      CODE     ---       #172
      010032BAH   LINE      CODE     ---       #173
      010032E1H   LINE      CODE     ---       #174
      ---         BLOCKEND  ---      ---       LVL=0

      0100330BH   BLOCK     CODE     ---       LVL=0
      0100330BH   LINE      CODE     ---       #176
      0100330BH   LINE      CODE     ---       #177
      0100330BH   LINE      CODE     ---       #178
      01003332H   LINE      CODE     ---       #179
      ---         BLOCKEND  ---      ---       LVL=0

      01002F62H   BLOCK     CODE     ---       LVL=0
      01002F62H   LINE      CODE     ---       #181
      01002F62H   LINE      CODE     ---       #182
      01002F62H   LINE      CODE     ---       #183
      01002F96H   LINE      CODE     ---       #184
      ---         BLOCKEND  ---      ---       LVL=0

      0100335CH   BLOCK     CODE     ---       LVL=0
      0100335CH   LINE      CODE     ---       #186
      0100335CH   LINE      CODE     ---       #187
      0100335CH   LINE      CODE     ---       #188
      01003383H   LINE      CODE     ---       #189
      ---         BLOCKEND  ---      ---       LVL=0

LX51 LINKER/LOCATER V4.66.93.0                                                        07/16/2024  15:05:47  PAGE 54


      010033ADH   BLOCK     CODE     ---       LVL=0
      010033ADH   LINE      CODE     ---       #191
      010033ADH   LINE      CODE     ---       #192
      010033ADH   LINE      CODE     ---       #193
      010033D4H   LINE      CODE     ---       #194
      ---         BLOCKEND  ---      ---       LVL=0

      01000D0EH   BLOCK     CODE     ---       LVL=0
      01000D0EH   LINE      CODE     ---       #197
      01000D0EH   LINE      CODE     ---       #198
      01000D0EH   LINE      CODE     ---       #199
      01000D42H   LINE      CODE     ---       #200
      01000D76H   LINE      CODE     ---       #201
      01000DA6H   LINE      CODE     ---       #202
      01000DDAH   LINE      CODE     ---       #203
      ---         BLOCKEND  ---      ---       LVL=0

      010023C7H   BLOCK     CODE     ---       LVL=0
      010023C7H   LINE      CODE     ---       #205
      010023C7H   LINE      CODE     ---       #206
      010023C7H   LINE      CODE     ---       #207
      010023FBH   LINE      CODE     ---       #208
      0100242FH   LINE      CODE     ---       #209
      0100245FH   LINE      CODE     ---       #210
      01002486H   LINE      CODE     ---       #211
      ---         BLOCKEND  ---      ---       LVL=0

      010014AAH   BLOCK     CODE     ---       LVL=0
      010014AAH   LINE      CODE     ---       #213
      010014AAH   LINE      CODE     ---       #214
      010014AAH   LINE      CODE     ---       #215
      010014DEH   LINE      CODE     ---       #216
      01001512H   LINE      CODE     ---       #217
      0100153DH   LINE      CODE     ---       #218
      01001571H   LINE      CODE     ---       #219
      ---         BLOCKEND  ---      ---       LVL=0

      0100358FH   BLOCK     CODE     ---       LVL=0
      0100358FH   LINE      CODE     ---       #221
      0100358FH   LINE      CODE     ---       #222
      0100358FH   LINE      CODE     ---       #223
      010035AEH   LINE      CODE     ---       #224
      ---         BLOCKEND  ---      ---       LVL=0

      01003CFCH   BLOCK     CODE     ---       LVL=0
      01003CFCH   LINE      CODE     ---       #226
      01003CFCH   LINE      CODE     ---       #227
      01003CFCH   LINE      CODE     ---       #228
      ---         BLOCKEND  ---      ---       LVL=0

      01003D26H   BLOCK     CODE     ---       LVL=0
      01003D26H   LINE      CODE     ---       #230
      01003D26H   LINE      CODE     ---       #231
      01003D26H   LINE      CODE     ---       #232
      ---         BLOCKEND  ---      ---       LVL=0

      010008AEH   BLOCK     CODE     ---       LVL=0
      010008AEH   LINE      CODE     ---       #234
      010008AEH   LINE      CODE     ---       #235
      010008AEH   LINE      CODE     ---       #236
      010008E2H   LINE      CODE     ---       #237
      01000916H   LINE      CODE     ---       #238
      0100094AH   LINE      CODE     ---       #239
      0100097EH   LINE      CODE     ---       #240
      ---         BLOCKEND  ---      ---       LVL=0
LX51 LINKER/LOCATER V4.66.93.0                                                        07/16/2024  15:05:47  PAGE 55



      01003A69H   BLOCK     CODE     ---       LVL=0
      01003A69H   LINE      CODE     ---       #242
      01003A69H   LINE      CODE     ---       #243
      01003A69H   LINE      CODE     ---       #244
      01003A90H   LINE      CODE     ---       #245
      ---         BLOCKEND  ---      ---       LVL=0

      01003AA0H   BLOCK     CODE     ---       LVL=0
      01003AA0H   LINE      CODE     ---       #247
      01003AA0H   LINE      CODE     ---       #248
      01003AA0H   LINE      CODE     ---       #249
      01003AC7H   LINE      CODE     ---       #250
      ---         BLOCKEND  ---      ---       LVL=0

      01003AD7H   BLOCK     CODE     ---       LVL=0
      01003AD7H   LINE      CODE     ---       #253
      01003AD7H   LINE      CODE     ---       #254
      01003AD7H   LINE      CODE     ---       #255
      01003AFEH   LINE      CODE     ---       #256
      ---         BLOCKEND  ---      ---       LVL=0

      01003B0EH   BLOCK     CODE     ---       LVL=0
      01003B0EH   LINE      CODE     ---       #258
      01003B0EH   LINE      CODE     ---       #259
      01003B0EH   LINE      CODE     ---       #260
      01003B35H   LINE      CODE     ---       #261
      ---         BLOCKEND  ---      ---       LVL=0

      01003B45H   BLOCK     CODE     ---       LVL=0
      01003B45H   LINE      CODE     ---       #263
      01003B45H   LINE      CODE     ---       #264
      01003B45H   LINE      CODE     ---       #265
      01003B6CH   LINE      CODE     ---       #266
      ---         BLOCKEND  ---      ---       LVL=0

      01003B7CH   BLOCK     CODE     ---       LVL=0
      01003B7CH   LINE      CODE     ---       #269
      01003B7CH   LINE      CODE     ---       #270
      01003B7CH   LINE      CODE     ---       #271
      01003BA3H   LINE      CODE     ---       #272
      ---         BLOCKEND  ---      ---       LVL=0

      010035D8H   BLOCK     CODE     ---       LVL=0
      010035D8H   LINE      CODE     ---       #274
      010035D8H   LINE      CODE     ---       #275
      010035D8H   LINE      CODE     ---       #276
      010035F7H   LINE      CODE     ---       #277
      ---         BLOCKEND  ---      ---       LVL=0

      0100301EH   BLOCK     CODE     ---       LVL=0
      0100301EH   LINE      CODE     ---       #279
      0100301EH   LINE      CODE     ---       #280
      0100301EH   LINE      CODE     ---       #281
      01003052H   LINE      CODE     ---       #282
      ---         BLOCKEND  ---      ---       LVL=0

      010018BFH   BLOCK     CODE     ---       LVL=0
      010018BFH   LINE      CODE     ---       #284
      010018BFH   LINE      CODE     ---       #285
      010018BFH   LINE      CODE     ---       #286
      010018E6H   LINE      CODE     ---       #287
      0100191AH   LINE      CODE     ---       #288
      01001946H   LINE      CODE     ---       #289
      0100197AH   LINE      CODE     ---       #290
LX51 LINKER/LOCATER V4.66.93.0                                                        07/16/2024  15:05:47  PAGE 56


      ---         BLOCKEND  ---      ---       LVL=0

      01000DEAH   BLOCK     CODE     ---       LVL=0
      01000DEAH   LINE      CODE     ---       #292
      01000DEAH   LINE      CODE     ---       #293
      01000DEAH   LINE      CODE     ---       #294
      01000E1EH   LINE      CODE     ---       #295
      01000E52H   LINE      CODE     ---       #296
      01000E7EH   LINE      CODE     ---       #297
      01000EB2H   LINE      CODE     ---       #298
      ---         BLOCKEND  ---      ---       LVL=0

      0100098EH   BLOCK     CODE     ---       LVL=0
      0100098EH   LINE      CODE     ---       #300
      0100098EH   LINE      CODE     ---       #301
      0100098EH   LINE      CODE     ---       #302
      010009C2H   LINE      CODE     ---       #303
      010009F6H   LINE      CODE     ---       #304
      01000A2AH   LINE      CODE     ---       #305
      01000A5EH   LINE      CODE     ---       #306
      ---         BLOCKEND  ---      ---       LVL=0

      01000A6EH   BLOCK     CODE     ---       LVL=0
      01000A6EH   LINE      CODE     ---       #308
      01000A6EH   LINE      CODE     ---       #309
      01000A6EH   LINE      CODE     ---       #310
      01000AA2H   LINE      CODE     ---       #311
      01000AD6H   LINE      CODE     ---       #312
      01000B0AH   LINE      CODE     ---       #313
      01000B3EH   LINE      CODE     ---       #314
      ---         BLOCKEND  ---      ---       LVL=0

      010025F6H   BLOCK     CODE     ---       LVL=0
      010025F6H   LINE      CODE     ---       #316
      010025F6H   LINE      CODE     ---       #317
      010025F6H   LINE      CODE     ---       #318
      0100262AH   LINE      CODE     ---       #319
      0100265EH   LINE      CODE     ---       #320
      0100267DH   LINE      CODE     ---       #321
      ---         BLOCKEND  ---      ---       LVL=0

      0100198AH   BLOCK     CODE     ---       LVL=0
      0100198AH   LINE      CODE     ---       #323
      0100198AH   LINE      CODE     ---       #324
      0100198AH   LINE      CODE     ---       #325
      010019B1H   LINE      CODE     ---       #326
      010019E5H   LINE      CODE     ---       #327
      01001A11H   LINE      CODE     ---       #328
      01001A45H   LINE      CODE     ---       #329
      ---         BLOCKEND  ---      ---       LVL=0

      01002D21H   BLOCK     CODE     ---       LVL=0
      01002D21H   LINE      CODE     ---       #331
      01002D21H   LINE      CODE     ---       #332
      01002D48H   LINE      CODE     ---       #333
      01002D7CH   LINE      CODE     ---       #334
      ---         BLOCKEND  ---      ---       LVL=0

      01003D50H   BLOCK     CODE     ---       LVL=0
      01003D50H   LINE      CODE     ---       #336
      01003D50H   LINE      CODE     ---       #337
      01003D50H   LINE      CODE     ---       #338
      ---         BLOCKEND  ---      ---       LVL=0

      010033FEH   BLOCK     CODE     ---       LVL=0
LX51 LINKER/LOCATER V4.66.93.0                                                        07/16/2024  15:05:47  PAGE 57


      010033FEH   LINE      CODE     ---       #340
      010033FEH   LINE      CODE     ---       #341
      010033FEH   LINE      CODE     ---       #342
      01003425H   LINE      CODE     ---       #343
      ---         BLOCKEND  ---      ---       LVL=0

      01002489H   BLOCK     CODE     ---       LVL=0
      01002489H   LINE      CODE     ---       #346
      01002489H   LINE      CODE     ---       #347
      01002489H   LINE      CODE     ---       #348
      010024B0H   LINE      CODE     ---       #349
      010024E4H   LINE      CODE     ---       #350
      01002518H   LINE      CODE     ---       #351
      ---         BLOCKEND  ---      ---       LVL=0

      0100344FH   BLOCK     CODE     ---       LVL=0
      0100344FH   LINE      CODE     ---       #353
      0100344FH   LINE      CODE     ---       #354
      0100344FH   LINE      CODE     ---       #355
      01003476H   LINE      CODE     ---       #356
      ---         BLOCKEND  ---      ---       LVL=0

      01003D7AH   BLOCK     CODE     ---       LVL=0
      01003D7AH   LINE      CODE     ---       #358
      01003D7AH   LINE      CODE     ---       #359
      01003D7AH   LINE      CODE     ---       #360
      ---         BLOCKEND  ---      ---       LVL=0

      01003074H   BLOCK     CODE     ---       LVL=0
      01003074H   LINE      CODE     ---       #362
      01003074H   LINE      CODE     ---       #363
      01003074H   LINE      CODE     ---       #364
      010030A0H   LINE      CODE     ---       #365
      ---         BLOCKEND  ---      ---       LVL=0

      01002FC0H   BLOCK     CODE     ---       LVL=0
      01002FC0H   LINE      CODE     ---       #367
      01002FC0H   LINE      CODE     ---       #368
      01002FC0H   LINE      CODE     ---       #369
      01002FF4H   LINE      CODE     ---       #370
      ---         BLOCKEND  ---      ---       LVL=0

      01000EC2H   BLOCK     CODE     ---       LVL=0
      01000EC2H   LINE      CODE     ---       #372
      01000EC2H   LINE      CODE     ---       #373
      01000EC2H   LINE      CODE     ---       #374
      01000EF6H   LINE      CODE     ---       #375
      01000F2AH   LINE      CODE     ---       #376
      01000F56H   LINE      CODE     ---       #377
      01000F8AH   LINE      CODE     ---       #378
      ---         BLOCKEND  ---      ---       LVL=0

      01003621H   BLOCK     CODE     ---       LVL=0
      01003621H   LINE      CODE     ---       #380
      01003621H   LINE      CODE     ---       #381
      01003621H   LINE      CODE     ---       #382
      01003640H   LINE      CODE     ---       #383
      ---         BLOCKEND  ---      ---       LVL=0

      010027F4H   BLOCK     CODE     ---       LVL=0
      010027F4H   LINE      CODE     ---       #385
      010027F4H   LINE      CODE     ---       #386
      010027F4H   LINE      CODE     ---       #387
      01002828H   LINE      CODE     ---       #388
      0100285CH   LINE      CODE     ---       #389
LX51 LINKER/LOCATER V4.66.93.0                                                        07/16/2024  15:05:47  PAGE 58


      ---         BLOCKEND  ---      ---       LVL=0

      01003BB3H   BLOCK     CODE     ---       LVL=0
      01003BB3H   LINE      CODE     ---       #391
      01003BB3H   LINE      CODE     ---       #392
      01003BB3H   LINE      CODE     ---       #393
      ---         BLOCKEND  ---      ---       LVL=0

      010020ADH   BLOCK     CODE     ---       LVL=0
      010020ADH   LINE      CODE     ---       #395
      010020ADH   LINE      CODE     ---       #396
      010020ADH   LINE      CODE     ---       #397
      010020E1H   LINE      CODE     ---       #398
      01002115H   LINE      CODE     ---       #399
      0100213FH   LINE      CODE     ---       #400
      ---         BLOCKEND  ---      ---       LVL=0

      0100366AH   BLOCK     CODE     ---       LVL=0
      0100366AH   LINE      CODE     ---       #402
      0100366AH   LINE      CODE     ---       #403
      0100366AH   LINE      CODE     ---       #404
      01003689H   LINE      CODE     ---       #405
      ---         BLOCKEND  ---      ---       LVL=0

      01002889H   BLOCK     CODE     ---       LVL=0
      01002889H   LINE      CODE     ---       #407
      01002889H   LINE      CODE     ---       #408
      01002889H   LINE      CODE     ---       #409
      010028B0H   LINE      CODE     ---       #410
      010028E4H   LINE      CODE     ---       #411
      ---         BLOCKEND  ---      ---       LVL=0

      01001A55H   BLOCK     CODE     ---       LVL=0
      01001A55H   LINE      CODE     ---       #413
      01001A55H   LINE      CODE     ---       #414
      01001A55H   LINE      CODE     ---       #415
      01001A89H   LINE      CODE     ---       #416
      01001ABDH   LINE      CODE     ---       #417
      01001AE9H   LINE      CODE     ---       #418
      ---         BLOCKEND  ---      ---       LVL=0

      010026A7H   BLOCK     CODE     ---       LVL=0
      010026A7H   LINE      CODE     ---       #420
      010026A7H   LINE      CODE     ---       #421
      010026A7H   LINE      CODE     ---       #422
      010026CEH   LINE      CODE     ---       #423
      01002702H   LINE      CODE     ---       #424
      0100272EH   LINE      CODE     ---       #425
      ---         BLOCKEND  ---      ---       LVL=0

      01000026H   BLOCK     CODE     ---       LVL=0
      01000026H   LINE      CODE     ---       #427
      01000026H   LINE      CODE     ---       #428
      01000026H   LINE      CODE     ---       #429
      ---         BLOCKEND  ---      ---       LVL=0

      01001B20H   BLOCK     CODE     ---       LVL=0
      01001B20H   LINE      CODE     ---       #431
      01001B20H   LINE      CODE     ---       #432
      01001B20H   LINE      CODE     ---       #433
      01001B47H   LINE      CODE     ---       #434
      01001B7BH   LINE      CODE     ---       #435
      01001BA7H   LINE      CODE     ---       #436
      01001BDBH   LINE      CODE     ---       #437
      ---         BLOCKEND  ---      ---       LVL=0
LX51 LINKER/LOCATER V4.66.93.0                                                        07/16/2024  15:05:47  PAGE 59



      010036B3H   BLOCK     CODE     ---       LVL=0
      010036B3H   LINE      CODE     ---       #439
      010036B3H   LINE      CODE     ---       #440
      010036B3H   LINE      CODE     ---       #441
      010036D2H   LINE      CODE     ---       #442
      ---         BLOCKEND  ---      ---       LVL=0

      01000F9AH   BLOCK     CODE     ---       LVL=0
      01000F9AH   LINE      CODE     ---       #444
      01000F9AH   LINE      CODE     ---       #445
      01000F9AH   LINE      CODE     ---       #446
      01000FCEH   LINE      CODE     ---       #447
      01001002H   LINE      CODE     ---       #448
      0100102EH   LINE      CODE     ---       #449
      01001062H   LINE      CODE     ---       #450
      ---         BLOCKEND  ---      ---       LVL=0

      01001072H   BLOCK     CODE     ---       LVL=0
      01001072H   LINE      CODE     ---       #452
      01001072H   LINE      CODE     ---       #453
      01001072H   LINE      CODE     ---       #454
      010010A6H   LINE      CODE     ---       #455
      010010DAH   LINE      CODE     ---       #456
      01001106H   LINE      CODE     ---       #457
      0100113AH   LINE      CODE     ---       #458
      ---         BLOCKEND  ---      ---       LVL=0

      01000B4EH   BLOCK     CODE     ---       LVL=0
      01000B4EH   LINE      CODE     ---       #460
      01000B4EH   LINE      CODE     ---       #461
      01000B4EH   LINE      CODE     ---       #462
      01000B82H   LINE      CODE     ---       #463
      01000BB6H   LINE      CODE     ---       #464
      01000BEAH   LINE      CODE     ---       #465
      01000C1EH   LINE      CODE     ---       #466
      ---         BLOCKEND  ---      ---       LVL=0

      010036FCH   BLOCK     CODE     ---       LVL=0
      010036FCH   LINE      CODE     ---       #468
      010036FCH   LINE      CODE     ---       #469
      010036FCH   LINE      CODE     ---       #470
      0100371BH   LINE      CODE     ---       #471
      ---         BLOCKEND  ---      ---       LVL=0

      0100114AH   BLOCK     CODE     ---       LVL=0
      0100114AH   LINE      CODE     ---       #473
      0100114AH   LINE      CODE     ---       #474
      0100114AH   LINE      CODE     ---       #475
      0100117EH   LINE      CODE     ---       #476
      010011B2H   LINE      CODE     ---       #477
      010011DEH   LINE      CODE     ---       #478
      01001212H   LINE      CODE     ---       #479
      ---         BLOCKEND  ---      ---       LVL=0

      01003745H   BLOCK     CODE     ---       LVL=0
      01003745H   LINE      CODE     ---       #481
      01003745H   LINE      CODE     ---       #482
      01003745H   LINE      CODE     ---       #483
      01003764H   LINE      CODE     ---       #484
      ---         BLOCKEND  ---      ---       LVL=0

      01001BEBH   BLOCK     CODE     ---       LVL=0
      01001BEBH   LINE      CODE     ---       #486
      01001BEBH   LINE      CODE     ---       #487
LX51 LINKER/LOCATER V4.66.93.0                                                        07/16/2024  15:05:47  PAGE 60


      01001BEBH   LINE      CODE     ---       #488
      01001C12H   LINE      CODE     ---       #489
      01001C46H   LINE      CODE     ---       #490
      01001C72H   LINE      CODE     ---       #491
      01001CA6H   LINE      CODE     ---       #492
      ---         BLOCKEND  ---      ---       LVL=0

      01001CB6H   BLOCK     CODE     ---       LVL=0
      01001CB6H   LINE      CODE     ---       #494
      01001CB6H   LINE      CODE     ---       #495
      01001CB6H   LINE      CODE     ---       #496
      01001CDDH   LINE      CODE     ---       #497
      01001D11H   LINE      CODE     ---       #498
      01001D3DH   LINE      CODE     ---       #499
      01001D71H   LINE      CODE     ---       #500
      ---         BLOCKEND  ---      ---       LVL=0

      01001D81H   BLOCK     CODE     ---       LVL=0
      01001D81H   LINE      CODE     ---       #502
      01001D81H   LINE      CODE     ---       #503
      01001D81H   LINE      CODE     ---       #504
      01001DA8H   LINE      CODE     ---       #505
      01001DDCH   LINE      CODE     ---       #506
      01001E08H   LINE      CODE     ---       #507
      01001E3CH   LINE      CODE     ---       #508
      ---         BLOCKEND  ---      ---       LVL=0

      01001E4CH   BLOCK     CODE     ---       LVL=0
      01001E4CH   LINE      CODE     ---       #510
      01001E4CH   LINE      CODE     ---       #511
      01001E4CH   LINE      CODE     ---       #512
      01001E73H   LINE      CODE     ---       #513
      01001EA7H   LINE      CODE     ---       #514
      01001ED3H   LINE      CODE     ---       #515
      01001F07H   LINE      CODE     ---       #516
      ---         BLOCKEND  ---      ---       LVL=0

      01001222H   BLOCK     CODE     ---       LVL=0
      01001222H   LINE      CODE     ---       #526
      01001222H   LINE      CODE     ---       #527
      01001222H   LINE      CODE     ---       #528
      01001256H   LINE      CODE     ---       #529
      0100128AH   LINE      CODE     ---       #530
      010012B6H   LINE      CODE     ---       #531
      010012EAH   LINE      CODE     ---       #532
      ---         BLOCKEND  ---      ---       LVL=0

      01003542H   BLOCK     CODE     ---       LVL=0
      01003542H   LINE      CODE     ---       #534
      01003542H   LINE      CODE     ---       #535
      01003542H   LINE      CODE     ---       #536
      01003565H   LINE      CODE     ---       #537
      ---         BLOCKEND  ---      ---       LVL=0

      01003E44H   BLOCK     CODE     ---       LVL=0
      01003E44H   LINE      CODE     ---       #539
      01003E44H   LINE      CODE     ---       #540
      01003E44H   LINE      CODE     ---       #541
      ---         BLOCKEND  ---      ---       LVL=0

      010012FAH   BLOCK     CODE     ---       LVL=0
      010012FAH   LINE      CODE     ---       #543
      010012FAH   LINE      CODE     ---       #544
      010012FAH   LINE      CODE     ---       #545
      0100132EH   LINE      CODE     ---       #546
LX51 LINKER/LOCATER V4.66.93.0                                                        07/16/2024  15:05:47  PAGE 61


      01001362H   LINE      CODE     ---       #547
      0100138EH   LINE      CODE     ---       #548
      010013C2H   LINE      CODE     ---       #549
      ---         BLOCKEND  ---      ---       LVL=0

      0100378EH   BLOCK     CODE     ---       LVL=0
      0100378EH   LINE      CODE     ---       #551
      0100378EH   LINE      CODE     ---       #552
      0100378EH   LINE      CODE     ---       #553
      010037ADH   LINE      CODE     ---       #554
      ---         BLOCKEND  ---      ---       LVL=0

      01003F23H   BLOCK     CODE     ---       LVL=0
      01003F23H   LINE      CODE     ---       #556
      01003F23H   LINE      CODE     ---       #557
      01003F23H   LINE      CODE     ---       #558
      ---         BLOCKEND  ---      ---       LVL=0

      01004074H   BLOCK     CODE     ---       LVL=0
      01004074H   LINE      CODE     ---       #560
      01004074H   LINE      CODE     ---       #561
      01004074H   LINE      CODE     ---       #562
      ---         BLOCKEND  ---      ---       LVL=0

      010030CAH   BLOCK     CODE     ---       LVL=0
      010030CAH   LINE      CODE     ---       #564
      010030CAH   LINE      CODE     ---       #565
      010030CAH   LINE      CODE     ---       #566
      010030F6H   LINE      CODE     ---       #567
      ---         BLOCKEND  ---      ---       LVL=0

      010013D2H   BLOCK     CODE     ---       LVL=0
      010013D2H   LINE      CODE     ---       #569
      010013D2H   LINE      CODE     ---       #570
      010013D2H   LINE      CODE     ---       #571
      01001406H   LINE      CODE     ---       #572
      0100143AH   LINE      CODE     ---       #573
      01001466H   LINE      CODE     ---       #574
      0100149AH   LINE      CODE     ---       #575
      ---         BLOCKEND  ---      ---       LVL=0

      01001F17H   BLOCK     CODE     ---       LVL=0
      01001F17H   LINE      CODE     ---       #577
      01001F17H   LINE      CODE     ---       #578
      01001F17H   LINE      CODE     ---       #579
      01001F4BH   LINE      CODE     ---       #580
      01001F7FH   LINE      CODE     ---       #581
      01001F9EH   LINE      CODE     ---       #582
      01001FD2H   LINE      CODE     ---       #583
      ---         BLOCKEND  ---      ---       LVL=0

      01003E66H   BLOCK     CODE     ---       LVL=0
      01003E66H   LINE      CODE     ---       #585
      01003E66H   LINE      CODE     ---       #586
      01003E66H   LINE      CODE     ---       #587
      ---         BLOCKEND  ---      ---       LVL=0

      01003F40H   BLOCK     CODE     ---       LVL=0
      01003F40H   LINE      CODE     ---       #589
      01003F40H   LINE      CODE     ---       #590
      01003F40H   LINE      CODE     ---       #591
      ---         BLOCKEND  ---      ---       LVL=0

      01003DA4H   BLOCK     CODE     ---       LVL=0
      01003DA4H   LINE      CODE     ---       #593
LX51 LINKER/LOCATER V4.66.93.0                                                        07/16/2024  15:05:47  PAGE 62


      01003DA4H   LINE      CODE     ---       #594
      01003DA4H   LINE      CODE     ---       #595
      ---         BLOCKEND  ---      ---       LVL=0

      01003F5DH   BLOCK     CODE     ---       LVL=0
      01003F5DH   LINE      CODE     ---       #597
      01003F5DH   LINE      CODE     ---       #598
      01003F5DH   LINE      CODE     ---       #599
      ---         BLOCKEND  ---      ---       LVL=0

      01000C2EH   BLOCK     CODE     ---       LVL=0
      01000C2EH   LINE      CODE     ---       #601
      01000C2EH   LINE      CODE     ---       #602
      01000C2EH   LINE      CODE     ---       #603
      01000C62H   LINE      CODE     ---       #604
      01000C96H   LINE      CODE     ---       #605
      01000CA3H   LINE      CODE     ---       #606
      01000CCAH   LINE      CODE     ---       #607
      01000CFEH   LINE      CODE     ---       #608
      ---         BLOCKEND  ---      ---       LVL=0

      01002176H   BLOCK     CODE     ---       LVL=0
      01002176H   LINE      CODE     ---       #611
      01002176H   LINE      CODE     ---       #612
      01002176H   LINE      CODE     ---       #613
      010021AAH   LINE      CODE     ---       #614
      010021DEH   LINE      CODE     ---       #615
      010021EBH   LINE      CODE     ---       #616
      01002212H   LINE      CODE     ---       #617
      ---         BLOCKEND  ---      ---       LVL=0

      010037D7H   BLOCK     CODE     ---       LVL=0
      010037D7H   LINE      CODE     ---       #619
      010037D7H   LINE      CODE     ---       #620
      010037D7H   LINE      CODE     ---       #621
      010037F6H   LINE      CODE     ---       #622
      ---         BLOCKEND  ---      ---       LVL=0

      01002302H   BLOCK     CODE     ---       LVL=0
      01002302H   LINE      CODE     ---       #624
      01002302H   LINE      CODE     ---       #625
      01002302H   LINE      CODE     ---       #626
      01002336H   LINE      CODE     ---       #627
      0100236AH   LINE      CODE     ---       #628
      01002377H   LINE      CODE     ---       #629
      0100239EH   LINE      CODE     ---       #630
      ---         BLOCKEND  ---      ---       LVL=0

      0100223CH   BLOCK     CODE     ---       LVL=0
      0100223CH   LINE      CODE     ---       #632
      0100223CH   LINE      CODE     ---       #633
      0100223CH   LINE      CODE     ---       #634
      01002270H   LINE      CODE     ---       #635
      010022A4H   LINE      CODE     ---       #636
      010022B1H   LINE      CODE     ---       #637
      010022D8H   LINE      CODE     ---       #638
      ---         BLOCKEND  ---      ---       LVL=0

      01001581H   BLOCK     CODE     ---       LVL=0
      01001581H   LINE      CODE     ---       #640
      01001581H   LINE      CODE     ---       #641
      01001581H   LINE      CODE     ---       #642
      010015A8H   LINE      CODE     ---       #643
      010015DCH   LINE      CODE     ---       #644
      01001610H   LINE      CODE     ---       #645
LX51 LINKER/LOCATER V4.66.93.0                                                        07/16/2024  15:05:47  PAGE 63


      01001644H   LINE      CODE     ---       #646
      ---         BLOCKEND  ---      ---       LVL=0

      010034A0H   BLOCK     CODE     ---       LVL=0
      010034A0H   LINE      CODE     ---       #648
      010034A0H   LINE      CODE     ---       #649
      010034A0H   LINE      CODE     ---       #650
      010034C7H   LINE      CODE     ---       #651
      ---         BLOCKEND  ---      ---       LVL=0

      01003F7AH   BLOCK     CODE     ---       LVL=0
      01003F7AH   LINE      CODE     ---       #653
      01003F7AH   LINE      CODE     ---       #654
      01003F7AH   LINE      CODE     ---       #655
      ---         BLOCKEND  ---      ---       LVL=0

      01003820H   BLOCK     CODE     ---       LVL=0
      01003820H   LINE      CODE     ---       #657
      01003820H   LINE      CODE     ---       #658
      01003820H   LINE      CODE     ---       #659
      0100383FH   LINE      CODE     ---       #660
      ---         BLOCKEND  ---      ---       LVL=0

      010034F1H   BLOCK     CODE     ---       LVL=0
      010034F1H   LINE      CODE     ---       #662
      010034F1H   LINE      CODE     ---       #663
      010034F1H   LINE      CODE     ---       #664
      01003518H   LINE      CODE     ---       #665
      ---         BLOCKEND  ---      ---       LVL=0

      01003F97H   BLOCK     CODE     ---       LVL=0
      01003F97H   LINE      CODE     ---       #667
      01003F97H   LINE      CODE     ---       #668
      01003F97H   LINE      CODE     ---       #669
      ---         BLOCKEND  ---      ---       LVL=0

      01003120H   BLOCK     CODE     ---       LVL=0
      01003120H   LINE      CODE     ---       #671
      01003120H   LINE      CODE     ---       #672
      01003120H   LINE      CODE     ---       #673
      0100314CH   LINE      CODE     ---       #674
      ---         BLOCKEND  ---      ---       LVL=0

      01003869H   BLOCK     CODE     ---       LVL=0
      01003869H   LINE      CODE     ---       #676
      01003869H   LINE      CODE     ---       #677
      01003869H   LINE      CODE     ---       #678
      01003888H   LINE      CODE     ---       #679
      ---         BLOCKEND  ---      ---       LVL=0

      01001FE2H   BLOCK     CODE     ---       LVL=0
      01001FE2H   LINE      CODE     ---       #681
      01001FE2H   LINE      CODE     ---       #682
      01001FE2H   LINE      CODE     ---       #683
      01002009H   LINE      CODE     ---       #684
      0100203DH   LINE      CODE     ---       #685
      01002069H   LINE      CODE     ---       #686
      0100209DH   LINE      CODE     ---       #687
      ---         BLOCKEND  ---      ---       LVL=0

      01000096H   BLOCK     CODE     ---       LVL=0
      01000096H   LINE      CODE     ---       #689
      01000096H   LINE      CODE     ---       #690
      01000096H   LINE      CODE     ---       #692
      010000A0H   LINE      CODE     ---       #693
LX51 LINKER/LOCATER V4.66.93.0                                                        07/16/2024  15:05:47  PAGE 64


      010000ADH   LINE      CODE     ---       #694
      010000B7H   LINE      CODE     ---       #695
      010000C1H   LINE      CODE     ---       #696
      010000CBH   LINE      CODE     ---       #697
      010000D5H   LINE      CODE     ---       #698
      010000E6H   LINE      CODE     ---       #699
      010000F0H   LINE      CODE     ---       #700
      010000FAH   LINE      CODE     ---       #701
      01000104H   LINE      CODE     ---       #702
      0100010EH   LINE      CODE     ---       #703
      01000118H   LINE      CODE     ---       #704
      01000129H   LINE      CODE     ---       #705
      01000133H   LINE      CODE     ---       #709
      0100013DH   LINE      CODE     ---       #710
      01000147H   LINE      CODE     ---       #711
      01000158H   LINE      CODE     ---       #712
      01000162H   LINE      CODE     ---       #713
      0100016CH   LINE      CODE     ---       #714
      01000176H   LINE      CODE     ---       #715
      01000180H   LINE      CODE     ---       #716
      0100018AH   LINE      CODE     ---       #717
      01000194H   LINE      CODE     ---       #718
      010001A5H   LINE      CODE     ---       #719
      010001A8H   LINE      CODE     ---       #720
      010001B2H   LINE      CODE     ---       #721
      010001BCH   LINE      CODE     ---       #722
      010001C6H   LINE      CODE     ---       #723
      010001D0H   LINE      CODE     ---       #724
      010001DAH   LINE      CODE     ---       #725
      010001E4H   LINE      CODE     ---       #729
      010001EEH   LINE      CODE     ---       #730
      010001F8H   LINE      CODE     ---       #731
      01000202H   LINE      CODE     ---       #732
      0100020CH   LINE      CODE     ---       #733
      01000216H   LINE      CODE     ---       #734
      01000220H   LINE      CODE     ---       #735
      0100022AH   LINE      CODE     ---       #736
      01000234H   LINE      CODE     ---       #737
      0100023EH   LINE      CODE     ---       #738
      01000248H   LINE      CODE     ---       #739
      01000252H   LINE      CODE     ---       #740
      0100025CH   LINE      CODE     ---       #741
      01000266H   LINE      CODE     ---       #742
      01000270H   LINE      CODE     ---       #743
      0100027AH   LINE      CODE     ---       #744
      01000284H   LINE      CODE     ---       #745
      0100028EH   LINE      CODE     ---       #746
      01000298H   LINE      CODE     ---       #747
      010002A2H   LINE      CODE     ---       #748
      010002ACH   LINE      CODE     ---       #749
      010002B6H   LINE      CODE     ---       #750
      010002C0H   LINE      CODE     ---       #751
      010002CAH   LINE      CODE     ---       #752
      010002D4H   LINE      CODE     ---       #753
      010002DEH   LINE      CODE     ---       #754
      010002E8H   LINE      CODE     ---       #755
      010002EBH   LINE      CODE     ---       #756
      010002EEH   LINE      CODE     ---       #757
      010002F1H   LINE      CODE     ---       #758
      010002F4H   LINE      CODE     ---       #759
      010002F7H   LINE      CODE     ---       #760
      01000301H   LINE      CODE     ---       #761
      0100030BH   LINE      CODE     ---       #762
      01000315H   LINE      CODE     ---       #763
      0100031FH   LINE      CODE     ---       #764
LX51 LINKER/LOCATER V4.66.93.0                                                        07/16/2024  15:05:47  PAGE 65


      01000329H   LINE      CODE     ---       #765
      01000333H   LINE      CODE     ---       #766
      0100033DH   LINE      CODE     ---       #767
      01000347H   LINE      CODE     ---       #768
      01000351H   LINE      CODE     ---       #769
      0100035BH   LINE      CODE     ---       #770
      01000365H   LINE      CODE     ---       #771
      0100036FH   LINE      CODE     ---       #772
      ---         BLOCKEND  ---      ---       LVL=0

      01002542H   BLOCK     CODE     ---       LVL=0
      01002542H   LINE      CODE     ---       #774
      01002542H   LINE      CODE     ---       #775
      01002542H   LINE      CODE     ---       #776
      0100254CH   LINE      CODE     ---       #777
      01002556H   LINE      CODE     ---       #778
      01002560H   LINE      CODE     ---       #779
      0100256AH   LINE      CODE     ---       #780
      01002574H   LINE      CODE     ---       #781
      0100257EH   LINE      CODE     ---       #782
      01002588H   LINE      CODE     ---       #783
      01002592H   LINE      CODE     ---       #784
      0100259CH   LINE      CODE     ---       #785
      010025A6H   LINE      CODE     ---       #786
      010025B0H   LINE      CODE     ---       #787
      010025BAH   LINE      CODE     ---       #788
      010025C4H   LINE      CODE     ---       #789
      010025CEH   LINE      CODE     ---       #790
      010025D8H   LINE      CODE     ---       #791
      010025E2H   LINE      CODE     ---       #792
      010025ECH   LINE      CODE     ---       #793
      ---         BLOCKEND  ---      ---       LVL=0

      01000379H   BLOCK     CODE     ---       LVL=0
      01000379H   LINE      CODE     ---       #798
      01000379H   LINE      CODE     ---       #799
      01000379H   LINE      CODE     ---       #801
      01000383H   LINE      CODE     ---       #802
      0100038DH   LINE      CODE     ---       #803
      01000397H   LINE      CODE     ---       #804
      010003A1H   LINE      CODE     ---       #805
      010003ABH   LINE      CODE     ---       #806
      010003BCH   LINE      CODE     ---       #807
      010003C6H   LINE      CODE     ---       #808
      010003D0H   LINE      CODE     ---       #809
      010003DAH   LINE      CODE     ---       #810
      010003E8H   LINE      CODE     ---       #812
      010003F2H   LINE      CODE     ---       #813
      010003FFH   LINE      CODE     ---       #814
      01000409H   LINE      CODE     ---       #815
      01000413H   LINE      CODE     ---       #816
      0100041DH   LINE      CODE     ---       #818
      01000427H   LINE      CODE     ---       #819
      01000446H   LINE      CODE     ---       #820
      0100045EH   LINE      CODE     ---       #821
      01000468H   LINE      CODE     ---       #822
      01000472H   LINE      CODE     ---       #823
      0100047CH   LINE      CODE     ---       #824
      01000486H   LINE      CODE     ---       #825
      01000490H   LINE      CODE     ---       #826
      0100049AH   LINE      CODE     ---       #827
      010004A4H   LINE      CODE     ---       #828
      010004AEH   LINE      CODE     ---       #829
      010004BFH   LINE      CODE     ---       #830
      010004C9H   LINE      CODE     ---       #831
LX51 LINKER/LOCATER V4.66.93.0                                                        07/16/2024  15:05:47  PAGE 66


      010004D3H   LINE      CODE     ---       #832
      010004DDH   LINE      CODE     ---       #833
      010004E7H   LINE      CODE     ---       #834
      010004F1H   LINE      CODE     ---       #835
      01000502H   LINE      CODE     ---       #836
      01000513H   LINE      CODE     ---       #837
      0100051DH   LINE      CODE     ---       #838
      01000527H   LINE      CODE     ---       #839
      01000531H   LINE      CODE     ---       #840
      0100053BH   LINE      CODE     ---       #841
      01000545H   LINE      CODE     ---       #842
      0100054FH   LINE      CODE     ---       #843
      01000559H   LINE      CODE     ---       #844
      01000563H   LINE      CODE     ---       #845
      0100056DH   LINE      CODE     ---       #846
      01000577H   LINE      CODE     ---       #847
      01000581H   LINE      CODE     ---       #848
      0100058BH   LINE      CODE     ---       #849
      01000595H   LINE      CODE     ---       #850
      0100059FH   LINE      CODE     ---       #851
      010005A9H   LINE      CODE     ---       #852
      010005B3H   LINE      CODE     ---       #853
      010005BDH   LINE      CODE     ---       #854
      010005C7H   LINE      CODE     ---       #855
      010005D1H   LINE      CODE     ---       #856
      010005DBH   LINE      CODE     ---       #857
      01000601H   LINE      CODE     ---       #858
      ---         BLOCKEND  ---      ---       LVL=0

      01003DCEH   BLOCK     CODE     ---       LVL=0
      01003DD4H   BLOCK     CODE     NEAR LAB  LVL=1
      00000027H   SYMBOL    DATA     BYTE      y
      ---         BLOCKEND  ---      ---       LVL=1
      01003DCEH   LINE      CODE     ---       #862
      01003DCEH   LINE      CODE     ---       #863
      01003DCEH   LINE      CODE     ---       #864
      01003DD4H   LINE      CODE     ---       #865
      01003DD4H   LINE      CODE     ---       #867
      01003DE3H   LINE      CODE     ---       #868
      01003DE3H   LINE      CODE     ---       #869
      01003DE8H   LINE      CODE     ---       #870
      01003DEDH   LINE      CODE     ---       #871
      01003DF0H   LINE      CODE     ---       #872
      01003DF3H   LINE      CODE     ---       #873
      01003DF3H   LINE      CODE     ---       #874
      01003DF5H   LINE      CODE     ---       #875
      01003DF7H   LINE      CODE     ---       #876
      ---         BLOCKEND  ---      ---       LVL=0

      ---         MODULE    ---      ---       ASR
      01002BCEH   PUBLIC    CODE     ---       human_computer2
      01002A3CH   PUBLIC    CODE     ---       human_computer
      01004024H   PUBLIC    CODE     ---       ASR_end
      01004008H   PUBLIC    CODE     ---       start_repeatedly_Speech_Recognition
      01003FECH   PUBLIC    CODE     ---       ASR_init2
      01003FD0H   PUBLIC    CODE     ---       ASR_init1
      01003FB4H   PUBLIC    CODE     ---       ASR_init
      010040DDH   PUBLIC    CODE     ---       Delay3500ms
      010040CEH   PUBLIC    CODE     ---       Delay6000ms
      0100412CH   PUBLIC    CODE     ---       Delay10000ms
      010040BFH   PUBLIC    CODE     ---       Delay5000ms
      010040B0H   PUBLIC    CODE     ---       Delay2500ms
      000000D8H.2 SFRSYM    DATA     BIT       CCF2
      00000092H   SFRSYM    DATA     BYTE      P1M0
      00000093H   SFRSYM    DATA     BYTE      P0M1
LX51 LINKER/LOCATER V4.66.93.0                                                        07/16/2024  15:05:47  PAGE 67


      000000E0H.7 SFRSYM    DATA     BIT       ACC7
      00000096H   SFRSYM    DATA     BYTE      P2M0
      00000091H   SFRSYM    DATA     BYTE      P1M1
      00000080H   SFRSYM    DATA     BYTE      P0
      000000B2H   SFRSYM    DATA     BYTE      P3M0
      00000095H   SFRSYM    DATA     BYTE      P2M1
      00000090H   SFRSYM    DATA     BYTE      P1
      000000B4H   SFRSYM    DATA     BYTE      P4M0
      000000B1H   SFRSYM    DATA     BYTE      P3M1
      000000A0H   SFRSYM    DATA     BYTE      P2
      000000ABH   SFRSYM    DATA     BYTE      WKTCH
      000000CAH   SFRSYM    DATA     BYTE      P5M0
      000000B3H   SFRSYM    DATA     BYTE      P4M1
      000000B0H   SFRSYM    DATA     BYTE      P3
      000000B0H.4 SFRSYM    DATA     BIT       T0
      000000CCH   SFRSYM    DATA     BYTE      P6M0
      000000C9H   SFRSYM    DATA     BYTE      P5M1
      000000C0H   SFRSYM    DATA     BYTE      P4
      000000D0H.6 SFRSYM    DATA     BIT       AC
      000000B0H.5 SFRSYM    DATA     BIT       CLKOUT0
      000000B0H.5 SFRSYM    DATA     BIT       T1
      000000C6H   SFRSYM    DATA     BYTE      ISP_TRIG
      000000F6H   SFRSYM    DATA     BYTE      PWMIF
      000000E2H   SFRSYM    DATA     BYTE      P7M0
      000000CBH   SFRSYM    DATA     BYTE      P6M1
      000000C8H   SFRSYM    DATA     BYTE      P5
      000000B0H.4 SFRSYM    DATA     BIT       CLKOUT1
      000000A0H.4 SFRSYM    DATA     BIT       SPI_SS_2
      000000A8H.7 SFRSYM    DATA     BIT       EA
      000000E1H   SFRSYM    DATA     BYTE      P7M1
      000000E8H   SFRSYM    DATA     BYTE      P6
      000000C8H.4 SFRSYM    DATA     BIT       SPI_SS_3
      00000090H.4 SFRSYM    DATA     BIT       SPI_MISO
      00000090H.3 SFRSYM    DATA     BIT       SPI_MOSI
      00000090H.1 SFRSYM    DATA     BIT       CCP0
      000000AAH   SFRSYM    DATA     BYTE      WKTCL
      000000F8H   SFRSYM    DATA     BYTE      P7
      00000090H.0 SFRSYM    DATA     BIT       CCP1
      000000CEH   SFRSYM    DATA     BYTE      SPCTL
      000000B0H.7 SFRSYM    DATA     BIT       CCP2
      000000D8H.7 SFRSYM    DATA     BIT       CF
      000000F5H   SFRSYM    DATA     BYTE      PWMCR
      000000F9H   SFRSYM    DATA     BYTE      CH
      000000A2H   SFRSYM    DATA     BYTE      P_SW1
      000000BAH   SFRSYM    DATA     BYTE      P_SW2
      000000A0H.1 SFRSYM    DATA     BIT       SPI_SCLK_2
      000000A8H.5 SFRSYM    DATA     BIT       EADC
      000000A8H   SFRSYM    DATA     BYTE      IE
      000000C0H.3 SFRSYM    DATA     BIT       SPI_SCLK_3
      000000E9H   SFRSYM    DATA     BYTE      CL
      000000C5H   SFRSYM    DATA     BYTE      IAP_CMD
      000000FAH   SFRSYM    DATA     BYTE      CCAP0H
      000000FBH   SFRSYM    DATA     BYTE      CCAP1H
      000000FCH   SFRSYM    DATA     BYTE      CCAP2H
      000000B6H   SFRSYM    DATA     BYTE      IPH2
      000000BDH   SFRSYM    DATA     BYTE      ADC_RES
      000000EAH   SFRSYM    DATA     BYTE      CCAP0L
      000000D8H.6 SFRSYM    DATA     BIT       CR
      000000B0H.7 SFRSYM    DATA     BIT       RD
      000000F7H   SFRSYM    DATA     BYTE      PWMFDCR
      000000EBH   SFRSYM    DATA     BYTE      CCAP1L
      000000DAH   SFRSYM    DATA     BYTE      CCAPM0
      000000ECH   SFRSYM    DATA     BYTE      CCAP2L
      000000DBH   SFRSYM    DATA     BYTE      CCAPM1
      000000DCH   SFRSYM    DATA     BYTE      CCAPM2
LX51 LINKER/LOCATER V4.66.93.0                                                        07/16/2024  15:05:47  PAGE 68


      000000A8H.4 SFRSYM    DATA     BIT       ES
      000000A0H.2 SFRSYM    DATA     BIT       SPI_MISO_2
      000000A0H.3 SFRSYM    DATA     BIT       SPI_MOSI_2
      000000B8H.5 SFRSYM    DATA     BIT       PADC
      000000B8H   SFRSYM    DATA     BYTE      IP
      000000C0H.1 SFRSYM    DATA     BIT       SPI_MISO_3
      000000C0H.0 SFRSYM    DATA     BIT       SPI_MOSI_3
      00000098H.0 SFRSYM    DATA     BIT       RI
      000000B0H.2 SFRSYM    DATA     BIT       INT0
      000000D0H.7 SFRSYM    DATA     BIT       CY
      000000B0H.3 SFRSYM    DATA     BIT       INT1
      00000098H.1 SFRSYM    DATA     BIT       TI
      00000097H   SFRSYM    DATA     BYTE      CLK_DIV
      000000C3H   SFRSYM    DATA     BYTE      IAP_ADDRH
      00000090H.0 SFRSYM    DATA     BIT       RXD2
      000000C5H   SFRSYM    DATA     BYTE      ISP_CMD
      00000090H.1 SFRSYM    DATA     BIT       TXD2
      000000B8H.4 SFRSYM    DATA     BIT       PS
      00000081H   SFRSYM    DATA     BYTE      SP
      000000D9H   SFRSYM    DATA     BYTE      CMOD
      000000D8H   SFRSYM    DATA     BYTE      CCON
      000000C4H   SFRSYM    DATA     BYTE      IAP_ADDRL
      000000B8H.7 SFRSYM    DATA     BIT       PPCA
      000000D0H.2 SFRSYM    DATA     BIT       OV
      000000E6H   SFRSYM    DATA     BYTE      CMPCR1
      000000B0H.6 SFRSYM    DATA     BIT       WR
      000000E7H   SFRSYM    DATA     BYTE      CMPCR2
      000000A8H.6 SFRSYM    DATA     BIT       ELVD
      00000080H.0 SFRSYM    DATA     BIT       P00
      000000BCH   SFRSYM    DATA     BYTE      ADC_CONTR
      00000099H   SFRSYM    DATA     BYTE      SBUF
      00000087H   SFRSYM    DATA     BYTE      PCON
      00000090H.0 SFRSYM    DATA     BIT       P10
      00000080H.1 SFRSYM    DATA     BIT       P01
      000000C3H   SFRSYM    DATA     BYTE      ISP_ADDRH
      000000A0H.0 SFRSYM    DATA     BIT       P20
      00000090H.1 SFRSYM    DATA     BIT       P11
      00000080H.2 SFRSYM    DATA     BIT       P02
      000000B0H.0 SFRSYM    DATA     BIT       P30
      000000A0H.1 SFRSYM    DATA     BIT       P21
      00000090H.2 SFRSYM    DATA     BIT       P12
      00000080H.3 SFRSYM    DATA     BIT       P03
      00000098H   SFRSYM    DATA     BYTE      SCON
      0000008FH   SFRSYM    DATA     BYTE      WAKE_CLKO
      000000C0H.0 SFRSYM    DATA     BIT       P40
      000000B0H.1 SFRSYM    DATA     BIT       P31
      000000A0H.2 SFRSYM    DATA     BIT       P22
      00000090H.3 SFRSYM    DATA     BIT       P13
      00000080H.4 SFRSYM    DATA     BIT       P04
      00000089H   SFRSYM    DATA     BYTE      TMOD
      00000088H   SFRSYM    DATA     BYTE      TCON
      000000C8H.0 SFRSYM    DATA     BIT       P50
      000000C0H.1 SFRSYM    DATA     BIT       P41
      000000B0H.2 SFRSYM    DATA     BIT       P32
      000000A0H.3 SFRSYM    DATA     BIT       P23
      00000090H.4 SFRSYM    DATA     BIT       P14
      00000080H.5 SFRSYM    DATA     BIT       P05
      000000C4H   SFRSYM    DATA     BYTE      ISP_ADDRL
      000000E8H.0 SFRSYM    DATA     BIT       P60
      000000C8H.1 SFRSYM    DATA     BIT       P51
      000000C0H.2 SFRSYM    DATA     BIT       P42
      000000B0H.3 SFRSYM    DATA     BIT       P33
      000000A0H.4 SFRSYM    DATA     BIT       P24
      00000090H.5 SFRSYM    DATA     BIT       P15
      00000080H.6 SFRSYM    DATA     BIT       P06
LX51 LINKER/LOCATER V4.66.93.0                                                        07/16/2024  15:05:47  PAGE 69


      000000B8H.6 SFRSYM    DATA     BIT       PLVD
      000000F8H.0 SFRSYM    DATA     BIT       P70
      000000E8H.1 SFRSYM    DATA     BIT       P61
      000000C8H.2 SFRSYM    DATA     BIT       P52
      000000C0H.3 SFRSYM    DATA     BIT       P43
      000000B0H.4 SFRSYM    DATA     BIT       P34
      000000A0H.5 SFRSYM    DATA     BIT       P25
      00000090H.6 SFRSYM    DATA     BIT       P16
      00000080H.7 SFRSYM    DATA     BIT       P07
      000000F8H.1 SFRSYM    DATA     BIT       P71
      000000E8H.2 SFRSYM    DATA     BIT       P62
      000000C8H.3 SFRSYM    DATA     BIT       P53
      000000C0H.4 SFRSYM    DATA     BIT       P44
      000000B0H.5 SFRSYM    DATA     BIT       P35
      000000A0H.6 SFRSYM    DATA     BIT       P26
      00000090H.7 SFRSYM    DATA     BIT       P17
      000000F8H.2 SFRSYM    DATA     BIT       P72
      000000E8H.3 SFRSYM    DATA     BIT       P63
      000000C8H.4 SFRSYM    DATA     BIT       P54
      000000C0H.5 SFRSYM    DATA     BIT       P45
      000000B0H.6 SFRSYM    DATA     BIT       P36
      000000A0H.7 SFRSYM    DATA     BIT       P27
      000000F8H.3 SFRSYM    DATA     BIT       P73
      000000E8H.4 SFRSYM    DATA     BIT       P64
      000000C8H.5 SFRSYM    DATA     BIT       P55
      000000C0H.6 SFRSYM    DATA     BIT       P46
      000000B0H.7 SFRSYM    DATA     BIT       P37
      000000F8H.4 SFRSYM    DATA     BIT       P74
      000000E8H.5 SFRSYM    DATA     BIT       P65
      000000C8H.6 SFRSYM    DATA     BIT       P56
      000000C0H.7 SFRSYM    DATA     BIT       P47
      000000F8H.5 SFRSYM    DATA     BIT       P75
      000000E8H.6 SFRSYM    DATA     BIT       P66
      000000C8H.7 SFRSYM    DATA     BIT       P57
      000000F8H.6 SFRSYM    DATA     BIT       P76
      000000E8H.7 SFRSYM    DATA     BIT       P67
      00000088H.1 SFRSYM    DATA     BIT       IE0
      000000A1H   SFRSYM    DATA     BYTE      BUS_SPEED
      000000F8H.7 SFRSYM    DATA     BIT       P77
      00000088H.3 SFRSYM    DATA     BIT       IE1
      000000AFH   SFRSYM    DATA     BYTE      IE2
      0000008EH   SFRSYM    DATA     BYTE      AUXR
      000000F0H   SFRSYM    DATA     BYTE      B
      000000C7H   SFRSYM    DATA     BYTE      IAP_CONTR
      000000F1H   SFRSYM    DATA     BYTE      PWMCFG
      000000E0H   SFRSYM    DATA     BYTE      ACC
      000000A8H.1 SFRSYM    DATA     BIT       ET0
      00000088H.5 SFRSYM    DATA     BIT       TF0
      000000A8H.3 SFRSYM    DATA     BIT       ET1
      0000008CH   SFRSYM    DATA     BYTE      RL_TH0
      00000088H.7 SFRSYM    DATA     BIT       TF1
      000000B5H   SFRSYM    DATA     BYTE      IP2
      0000008DH   SFRSYM    DATA     BYTE      RL_TH1
      00000098H.2 SFRSYM    DATA     BIT       RB8
      0000008CH   SFRSYM    DATA     BYTE      TH0
      000000D6H   SFRSYM    DATA     BYTE      RL_T2H
      0000008DH   SFRSYM    DATA     BYTE      TH1
      00000088H.0 SFRSYM    DATA     BIT       IT0
      000000A8H.0 SFRSYM    DATA     BIT       EX0
      000000D4H   SFRSYM    DATA     BYTE      RL_T3H
      000000D6H   SFRSYM    DATA     BYTE      TH2
      00000098H.3 SFRSYM    DATA     BIT       TB8
      000000D6H   SFRSYM    DATA     BYTE      T2H
      00000088H.2 SFRSYM    DATA     BIT       IT1
      000000A8H.2 SFRSYM    DATA     BIT       EX1
LX51 LINKER/LOCATER V4.66.93.0                                                        07/16/2024  15:05:47  PAGE 70


      000000D2H   SFRSYM    DATA     BYTE      RL_T4H
      000000D4H   SFRSYM    DATA     BYTE      TH3
      0000008AH   SFRSYM    DATA     BYTE      RL_TL0
      000000D4H   SFRSYM    DATA     BYTE      T3H
      000000D0H.0 SFRSYM    DATA     BIT       P
      000000D2H   SFRSYM    DATA     BYTE      TH4
      0000008BH   SFRSYM    DATA     BYTE      RL_TL1
      00000098H.7 SFRSYM    DATA     BIT       SM0
      000000D2H   SFRSYM    DATA     BYTE      T4H
      0000008AH   SFRSYM    DATA     BYTE      TL0
      000000D7H   SFRSYM    DATA     BYTE      RL_T2L
      00000098H.6 SFRSYM    DATA     BIT       SM1
      0000008BH   SFRSYM    DATA     BYTE      TL1
      000000D5H   SFRSYM    DATA     BYTE      RL_T3L
      000000D7H   SFRSYM    DATA     BYTE      TL2
      00000098H.5 SFRSYM    DATA     BIT       SM2
      000000D7H   SFRSYM    DATA     BYTE      T2L
      000000D3H   SFRSYM    DATA     BYTE      RL_T4L
      000000D5H   SFRSYM    DATA     BYTE      TL3
      000000D5H   SFRSYM    DATA     BYTE      T3L
      000000D3H   SFRSYM    DATA     BYTE      TL4
      000000D3H   SFRSYM    DATA     BYTE      T4L
      000000B8H.1 SFRSYM    DATA     BIT       PT0
      000000C7H   SFRSYM    DATA     BYTE      ISP_CONTR
      000000B8H.3 SFRSYM    DATA     BIT       PT1
      000000D0H.3 SFRSYM    DATA     BIT       RS0
      000000C2H   SFRSYM    DATA     BYTE      IAP_DATA
      00000088H.4 SFRSYM    DATA     BIT       TR0
      000000D0H.4 SFRSYM    DATA     BIT       RS1
      00000088H.6 SFRSYM    DATA     BIT       TR1
      000000C1H   SFRSYM    DATA     BYTE      WDT_CONTR
      000000B8H.0 SFRSYM    DATA     BIT       PX0
      000000B8H.2 SFRSYM    DATA     BIT       PX1
      000000F2H   SFRSYM    DATA     BYTE      PCA_PWM0
      000000F3H   SFRSYM    DATA     BYTE      PCA_PWM1
      000000F4H   SFRSYM    DATA     BYTE      PCA_PWM2
      0000009DH   SFRSYM    DATA     BYTE      P1ASF
      00000083H   SFRSYM    DATA     BYTE      DPH
      000000D1H   SFRSYM    DATA     BYTE      T3T4M
      000000D1H   SFRSYM    DATA     BYTE      T4T3M
      000000BEH   SFRSYM    DATA     BYTE      ADC_RESL
      00000082H   SFRSYM    DATA     BYTE      DPL
      000000B7H   SFRSYM    DATA     BYTE      IPH
      000000CDH   SFRSYM    DATA     BYTE      SPSTAT
      0000009BH   SFRSYM    DATA     BYTE      S2BUF
      00000097H   SFRSYM    DATA     BYTE      PCON2
      000000ADH   SFRSYM    DATA     BYTE      S3BUF
      00000085H   SFRSYM    DATA     BYTE      S4BUF
      00000098H.4 SFRSYM    DATA     BIT       REN
      0000009AH   SFRSYM    DATA     BYTE      S2CON
      000000ACH   SFRSYM    DATA     BYTE      S3CON
      000000C2H   SFRSYM    DATA     BYTE      ISP_DATA
      00000084H   SFRSYM    DATA     BYTE      S4CON
      000000B9H   SFRSYM    DATA     BYTE      SADEN
      000000B0H.0 SFRSYM    DATA     BIT       RXD
      000000A9H   SFRSYM    DATA     BYTE      SADDR
      000000B0H.1 SFRSYM    DATA     BIT       TXD
      000000F0H.0 SFRSYM    DATA     BIT       B0
      000000C6H   SFRSYM    DATA     BYTE      IAP_TRIG
      000000A2H   SFRSYM    DATA     BYTE      AUXR1
      000000F0H.1 SFRSYM    DATA     BIT       B1
      00000090H.2 SFRSYM    DATA     BIT       SPI_SS
      0000008FH   SFRSYM    DATA     BYTE      AUXR2
      000000F0H.2 SFRSYM    DATA     BIT       B2
      000000F0H.3 SFRSYM    DATA     BIT       B3
LX51 LINKER/LOCATER V4.66.93.0                                                        07/16/2024  15:05:47  PAGE 71


      000000D0H.5 SFRSYM    DATA     BIT       F0
      000000F0H.4 SFRSYM    DATA     BIT       B4
      0000008FH   SFRSYM    DATA     BYTE      INT_CLKO
      000000D0H.1 SFRSYM    DATA     BIT       F1
      000000F0H.5 SFRSYM    DATA     BIT       B5
      000000F0H.6 SFRSYM    DATA     BIT       B6
      000000E0H.0 SFRSYM    DATA     BIT       ACC0
      000000F0H.7 SFRSYM    DATA     BIT       B7
      000000E0H.1 SFRSYM    DATA     BIT       ACC1
      000000E0H.2 SFRSYM    DATA     BIT       ACC2
      000000D0H   SFRSYM    DATA     BYTE      PSW
      000000E0H.3 SFRSYM    DATA     BIT       ACC3
      00000090H.5 SFRSYM    DATA     BIT       SPI_SCLK
      000000E0H.4 SFRSYM    DATA     BIT       ACC4
      000000D8H.0 SFRSYM    DATA     BIT       CCF0
      000000E0H.5 SFRSYM    DATA     BIT       ACC5
      000000D8H.1 SFRSYM    DATA     BIT       CCF1
      000000CFH   SFRSYM    DATA     BYTE      SPDAT
      00000094H   SFRSYM    DATA     BYTE      P0M0
      000000E0H.6 SFRSYM    DATA     BIT       ACC6

      010040B0H   BLOCK     CODE     ---       LVL=0
      010040B0H   BLOCK     CODE     NEAR LAB  LVL=1
      00000007H   SYMBOL    DATA     BYTE      i
      00000006H   SYMBOL    DATA     BYTE      j
      00000005H   SYMBOL    DATA     BYTE      k
      ---         BLOCKEND  ---      ---       LVL=1
      010040B0H   LINE      CODE     ---       #9
      010040B0H   LINE      CODE     ---       #10
      010040B0H   LINE      CODE     ---       #13
      010040B1H   LINE      CODE     ---       #14
      010040B2H   LINE      CODE     ---       #15
      010040B4H   LINE      CODE     ---       #16
      010040B6H   LINE      CODE     ---       #17
      010040B8H   LINE      CODE     ---       #19
      010040B8H   LINE      CODE     ---       #21
      010040B8H   LINE      CODE     ---       #22
      010040BAH   LINE      CODE     ---       #23
      010040BCH   LINE      CODE     ---       #24
      010040BEH   LINE      CODE     ---       #25
      ---         BLOCKEND  ---      ---       LVL=0

      010040BFH   BLOCK     CODE     ---       LVL=0
      010040BFH   BLOCK     CODE     NEAR LAB  LVL=1
      00000007H   SYMBOL    DATA     BYTE      i
      00000006H   SYMBOL    DATA     BYTE      j
      00000005H   SYMBOL    DATA     BYTE      k
      ---         BLOCKEND  ---      ---       LVL=1
      010040BFH   LINE      CODE     ---       #26
      010040BFH   LINE      CODE     ---       #27
      010040BFH   LINE      CODE     ---       #30
      010040C0H   LINE      CODE     ---       #31
      010040C1H   LINE      CODE     ---       #32
      010040C3H   LINE      CODE     ---       #33
      010040C5H   LINE      CODE     ---       #34
      010040C7H   LINE      CODE     ---       #36
      010040C7H   LINE      CODE     ---       #38
      010040C7H   LINE      CODE     ---       #39
      010040C9H   LINE      CODE     ---       #40
      010040CBH   LINE      CODE     ---       #41
      010040CDH   LINE      CODE     ---       #42
      ---         BLOCKEND  ---      ---       LVL=0

      0100412CH   BLOCK     CODE     ---       LVL=0
      0100412CH   LINE      CODE     ---       #43
LX51 LINKER/LOCATER V4.66.93.0                                                        07/16/2024  15:05:47  PAGE 72


      0100412CH   LINE      CODE     ---       #44
      0100412CH   LINE      CODE     ---       #45
      0100412FH   LINE      CODE     ---       #46
      ---         BLOCKEND  ---      ---       LVL=0

      010040CEH   BLOCK     CODE     ---       LVL=0
      010040CEH   BLOCK     CODE     NEAR LAB  LVL=1
      00000007H   SYMBOL    DATA     BYTE      i
      00000006H   SYMBOL    DATA     BYTE      j
      00000005H   SYMBOL    DATA     BYTE      k
      ---         BLOCKEND  ---      ---       LVL=1
      010040CEH   LINE      CODE     ---       #48
      010040CEH   LINE      CODE     ---       #49
      010040CEH   LINE      CODE     ---       #52
      010040CFH   LINE      CODE     ---       #53
      010040D0H   LINE      CODE     ---       #54
      010040D2H   LINE      CODE     ---       #55
      010040D4H   LINE      CODE     ---       #56
      010040D6H   LINE      CODE     ---       #58
      010040D6H   LINE      CODE     ---       #60
      010040D6H   LINE      CODE     ---       #61
      010040D8H   LINE      CODE     ---       #62
      010040DAH   LINE      CODE     ---       #63
      010040DCH   LINE      CODE     ---       #64
      ---         BLOCKEND  ---      ---       LVL=0

      010040DDH   BLOCK     CODE     ---       LVL=0
      010040DDH   BLOCK     CODE     NEAR LAB  LVL=1
      00000007H   SYMBOL    DATA     BYTE      i
      00000006H   SYMBOL    DATA     BYTE      j
      00000005H   SYMBOL    DATA     BYTE      k
      ---         BLOCKEND  ---      ---       LVL=1
      010040DDH   LINE      CODE     ---       #65
      010040DDH   LINE      CODE     ---       #66
      010040DDH   LINE      CODE     ---       #69
      010040DEH   LINE      CODE     ---       #70
      010040DFH   LINE      CODE     ---       #71
      010040E1H   LINE      CODE     ---       #72
      010040E3H   LINE      CODE     ---       #73
      010040E5H   LINE      CODE     ---       #75
      010040E5H   LINE      CODE     ---       #77
      010040E5H   LINE      CODE     ---       #78
      010040E7H   LINE      CODE     ---       #79
      010040E9H   LINE      CODE     ---       #80
      010040EBH   LINE      CODE     ---       #81
      ---         BLOCKEND  ---      ---       LVL=0

      01003FB4H   BLOCK     CODE     ---       LVL=0
      01003FB4H   LINE      CODE     ---       #84
      01003FB4H   LINE      CODE     ---       #85
      01003FB7H   LINE      CODE     ---       #86
      01003FBCH   LINE      CODE     ---       #87
      01003FC1H   LINE      CODE     ---       #88
      01003FC6H   LINE      CODE     ---       #89
      01003FC9H   LINE      CODE     ---       #90
      ---         BLOCKEND  ---      ---       LVL=0

      01003FD0H   BLOCK     CODE     ---       LVL=0
      01003FD0H   LINE      CODE     ---       #92
      01003FD0H   LINE      CODE     ---       #93
      01003FD3H   LINE      CODE     ---       #94
      01003FD8H   LINE      CODE     ---       #95
      01003FDDH   LINE      CODE     ---       #96
      01003FE2H   LINE      CODE     ---       #97
      01003FE5H   LINE      CODE     ---       #98
LX51 LINKER/LOCATER V4.66.93.0                                                        07/16/2024  15:05:47  PAGE 73


      ---         BLOCKEND  ---      ---       LVL=0

      01003FECH   BLOCK     CODE     ---       LVL=0
      01003FECH   LINE      CODE     ---       #100
      01003FECH   LINE      CODE     ---       #101
      01003FEFH   LINE      CODE     ---       #102
      01003FF4H   LINE      CODE     ---       #103
      01003FF9H   LINE      CODE     ---       #104
      01003FFEH   LINE      CODE     ---       #105
      01004001H   LINE      CODE     ---       #106
      ---         BLOCKEND  ---      ---       LVL=0

      01004008H   BLOCK     CODE     ---       LVL=0
      01004008H   LINE      CODE     ---       #109
      01004008H   LINE      CODE     ---       #110
      01004008H   LINE      CODE     ---       #111
      0100400BH   LINE      CODE     ---       #112
      01004010H   LINE      CODE     ---       #113
      01004015H   LINE      CODE     ---       #114
      0100401AH   LINE      CODE     ---       #115
      0100401DH   LINE      CODE     ---       #116
      ---         BLOCKEND  ---      ---       LVL=0

      01004024H   BLOCK     CODE     ---       LVL=0
      01004024H   LINE      CODE     ---       #119
      01004024H   LINE      CODE     ---       #120
      01004027H   LINE      CODE     ---       #121
      0100402CH   LINE      CODE     ---       #122
      01004031H   LINE      CODE     ---       #123
      01004036H   LINE      CODE     ---       #124
      01004039H   LINE      CODE     ---       #125
      ---         BLOCKEND  ---      ---       LVL=0

      01002A3CH   BLOCK     CODE     ---       LVL=0
      01002A3CH   LINE      CODE     ---       #128
      01002A3CH   LINE      CODE     ---       #129
      01002A3CH   LINE      CODE     ---       #130
      01002A3FH   LINE      CODE     ---       #131
      01002A42H   LINE      CODE     ---       #132
      01002A45H   LINE      CODE     ---       #133
      01002A48H   LINE      CODE     ---       #134
      01002A4EH   LINE      CODE     ---       #135
      01002A4EH   LINE      CODE     ---       #136
      01002A56H   LINE      CODE     ---       #137
      01002A56H   LINE      CODE     ---       #138
      01002A5DH   LINE      CODE     ---       #139
      01002A5FH   LINE      CODE     ---       #140
      01002A67H   LINE      CODE     ---       #141
      01002A6FH   LINE      CODE     ---       #142
      01002A84H   LINE      CODE     ---       #143
      01002A84H   LINE      CODE     ---       #144
      01002A87H   LINE      CODE     ---       #145
      01002A8AH   LINE      CODE     ---       #146
      01002A8AH   LINE      CODE     ---       #147
      01002A8CH   LINE      CODE     ---       #148
      01002A8FH   LINE      CODE     ---       #149
      01002A92H   LINE      CODE     ---       #150
      01002A92H   LINE      CODE     ---       #151
      01002A94H   LINE      CODE     ---       #152
      01002A97H   LINE      CODE     ---       #153
      01002A9AH   LINE      CODE     ---       #154
      01002A9AH   LINE      CODE     ---       #155
      01002A9CH   LINE      CODE     ---       #156
      01002A9FH   LINE      CODE     ---       #157
      01002AA2H   LINE      CODE     ---       #158
LX51 LINKER/LOCATER V4.66.93.0                                                        07/16/2024  15:05:47  PAGE 74


      01002AA5H   LINE      CODE     ---       #159
      01002AA7H   LINE      CODE     ---       #160
      01002AAAH   LINE      CODE     ---       #161
      01002AADH   LINE      CODE     ---       #162
      01002AB0H   LINE      CODE     ---       #163
      01002AB3H   LINE      CODE     ---       #164
      01002AB3H   LINE      CODE     ---       #165
      01002AB3H   LINE      CODE     ---       #166
      01002ABAH   LINE      CODE     ---       #167
      01002ABDH   LINE      CODE     ---       #168
      01002ABFH   LINE      CODE     ---       #169
      01002ABFH   LINE      CODE     ---       #170
      01002AC1H   LINE      CODE     ---       #171
      ---         BLOCKEND  ---      ---       LVL=0

      01002BCEH   BLOCK     CODE     ---       LVL=0
      01002BCEH   LINE      CODE     ---       #173
      01002BCEH   LINE      CODE     ---       #174
      01002BCEH   LINE      CODE     ---       #175
      01002BD3H   LINE      CODE     ---       #176
      01002BD8H   LINE      CODE     ---       #177
      01002BDDH   LINE      CODE     ---       #178
      01002BDDH   LINE      CODE     ---       #179
      01002BDDH   LINE      CODE     ---       #180
      01002BDDH   LINE      CODE     ---       #181
      01002BDDH   LINE      CODE     ---       #182
      01002BDFH   LINE      CODE     ---       #183
      01002BEEH   LINE      CODE     ---       #184
      01002BEEH   LINE      CODE     ---       #185
      01002C00H   LINE      CODE     ---       #186
      01002C12H   LINE      CODE     ---       #187
      01002C28H   LINE      CODE     ---       #188
      01002C28H   LINE      CODE     ---       #189
      01002C2BH   LINE      CODE     ---       #190
      01002C2DH   LINE      CODE     ---       #191
      01002C36H   LINE      CODE     ---       #192
      01002C3FH   LINE      CODE     ---       #193
      01002C48H   LINE      CODE     ---       #194
      01002C48H   LINE      CODE     ---       #195
      ---         BLOCKEND  ---      ---       LVL=0

      ---         MODULE    ---      ---       ?C_INIT
      010029F7H   PUBLIC    CODE     ---       ?C_START

      ---         MODULE    ---      ---       ?C?CLDPTR
      01003A2EH   PUBLIC    CODE     ---       ?C?CLDPTR

      ---         MODULE    ---      ---       ?C?CSTOPTR
      01003A47H   PUBLIC    CODE     ---       ?C?CSTOPTR



*** WARNING L57: UNCALLED FUNCTION, IGNORED FOR OVERLAY PROCESS
    NAME:    _SENDSTRINGBYUART3/UART

*** WARNING L57: UNCALLED FUNCTION, IGNORED FOR OVERLAY PROCESS
    NAME:    CLR_BUF3/UART

*** WARNING L25: DATA TYPES DIFFERENT
    SYMBOL:  Rec_Buf4
    MODULE:  .\Objects\ASR.obj (ASR)
   DEFINED:  .\Objects\UART.obj (UART)

Program Size: data=41.0 xdata=22 const=54 code=16685
LX51 RUN COMPLETE.  3 WARNING(S),  0 ERROR(S)
