LX51 LINKER/LOCATER V4.66.93.0                                                          07/16/2024  15:06:14  PAGE 1


LX51 LINKER/LOCATER V4.66.93.0, INVOKED BY:
G:\KEIL_V5\C51\BIN\LX51.EXE .\Objects\STARTUP.obj, .\Objects\MAIN.obj, .\Objects\UART.obj, .\Objects\NARFL2401.obj, .\Ob
>> jects\duoji.obj, .\Objects\ASR.obj TO .\Objects\XPU PRINT (.\Listings\XPU.map)


CPU MODE:     8051 MODE
MEMORY MODEL: SMALL


INPUT MODULES INCLUDED:
  .\Objects\STARTUP.obj (?C_STARTUP)
         COMMENT TYPE 1: A51 / ASM51 Assembler
  .\Objects\MAIN.obj (MAIN)
         COMMENT TYPE 0: C51 V9.59.0.0
  .\Objects\UART.obj (UART)
         COMMENT TYPE 0: C51 V9.59.0.0
  .\Objects\NARFL2401.obj (NARFL2401)
         COMMENT TYPE 0: C51 V9.59.0.0
  .\Objects\duoji.obj (DUOJI)
         COMMENT TYPE 0: C51 V9.59.0.0
  .\Objects\ASR.obj (ASR)
         COMMENT TYPE 0: C51 V9.59.0.0
  G:\KEIL_V5\C51\LIB\C51S.LIB (?C_INIT)
         COMMENT TYPE 1: A51 / ASM51 Assembler
  G:\KEIL_V5\C51\LIB\C51S.LIB (?C?CLDPTR)
         COMMENT TYPE 1: A51 / ASM51 Assembler
  G:\KEIL_V5\C51\LIB\C51S.LIB (?C?CSTOPTR)
         COMMENT TYPE 1: A51 / ASM51 Assembler


ACTIVE MEMORY CLASSES OF MODULE:  .\Objects\XPU (?C_STARTUP)

BASE        START       END         USED      MEMORY CLASS
==========================================================
C:000000H   C:000000H   C:00FFFFH   003F1DH   CODE
I:000000H   I:000000H   I:0000FFH   000001H   IDATA
C:000000H   C:000000H   C:00FFFFH   000015H   CONST
I:000000H   I:000000H   I:00007FH   00002AH   DATA
X:000000H   X:000000H   X:00FFFFH   000016H   XDATA


MEMORY MAP OF MODULE:  .\Objects\XPU (?C_STARTUP)


START     STOP      LENGTH    ALIGN  RELOC    MEMORY CLASS   SEGMENT NAME
=========================================================================

* * * * * * * * * * *   D A T A   M E M O R Y   * * * * * * * * * * * * *
000000H   000007H   000008H   ---    AT..     DATA           "REG BANK 0"
000008H   000014H   00000DH   BYTE   UNIT     DATA           ?DT?NARFL2401
000015H   00001FH   00000BH   BYTE   UNIT     DATA           _DATA_GROUP_
000020H   000023H   000004H   BYTE   UNIT     DATA           ?DT?UART
000024H   000026H   000003H   BYTE   UNIT     DATA           ?DT?_SENDSTRINGBYUART3?UART
000027H   000029H   000003H   BYTE   UNIT     DATA           ?DT?_SENDSTRINGBYUART4?UART
00002AH   00002AH   000001H   BYTE   UNIT     IDATA          ?STACK

* * * * * * * * * * *   C O D E   M E M O R Y   * * * * * * * * * * * * *
000000H   000002H   000003H   ---    OFFS..   CODE           ?CO??C_STARTUP?0
000003H   000012H   000010H   BYTE   UNIT     CODE           ?PR?INIT_NRF24L01_MA?NARFL2401
000013H   000015H   000003H   BYTE   OFFS..   CODE           ?NARFL2401?00013
000016H   000022H   00000DH   BYTE   UNIT     CODE           ?PR?_SPI_RW?NARFL2401
000023H   000025H   000003H   BYTE   OFFS..   CODE           ?UART?00023
000026H   000042H   00001DH   BYTE   UNIT     CODE           ?PR?ACTION48?DUOJI
000043H   000045H   000003H   BYTE   OFFS..   CODE           ?UART?00043
000046H   00008AH   000045H   BYTE   UNIT     CODE           ?PR?UART2?UART
00008BH   00008DH   000003H   BYTE   OFFS..   CODE           ?UART?0008B
LX51 LINKER/LOCATER V4.66.93.0                                                        07/16/2024  15:06:14  PAGE 2


00008EH   000092H   000005H   ---    ---      **GAP**
000093H   000095H   000003H   BYTE   OFFS..   CODE           ?UART?00093
000096H   000378H   0002E3H   BYTE   UNIT     CODE           ?PR?PART_ONE?DUOJI
000379H   000606H   00028EH   BYTE   UNIT     CODE           ?PR?PART_THREE?DUOJI
000607H   0006E6H   0000E0H   BYTE   UNIT     CODE           ?PR?START?DUOJI
0006E7H   0007C6H   0000E0H   BYTE   UNIT     CODE           ?PR?ACTION5?DUOJI
0007C7H   0008A6H   0000E0H   BYTE   UNIT     CODE           ?PR?ACTION18?DUOJI
0008A7H   000986H   0000E0H   BYTE   UNIT     CODE           ?PR?ACTION25?DUOJI
000987H   000A66H   0000E0H   BYTE   UNIT     CODE           ?PR?ACTION26?DUOJI
000A67H   000B46H   0000E0H   BYTE   UNIT     CODE           ?PR?ACTION53?DUOJI
000B47H   000C26H   0000E0H   BYTE   UNIT     CODE           ?PR?ACTION73?DUOJI
000C27H   000D02H   0000DCH   BYTE   UNIT     CODE           ?PR?ACTION12_1?DUOJI
000D03H   000DDEH   0000DCH   BYTE   UNIT     CODE           ?PR?ACTION13?DUOJI
000DDFH   000EB6H   0000D8H   BYTE   UNIT     CODE           ?PR?ACTION14?DUOJI
000EB7H   000F8EH   0000D8H   BYTE   UNIT     CODE           ?PR?ACTION24_4?DUOJI
000F8FH   001066H   0000D8H   BYTE   UNIT     CODE           ?PR?ACTION39?DUOJI
001067H   00113EH   0000D8H   BYTE   UNIT     CODE           ?PR?ACTION51?DUOJI
00113FH   001216H   0000D8H   BYTE   UNIT     CODE           ?PR?ACTION52?DUOJI
001217H   0012EEH   0000D8H   BYTE   UNIT     CODE           ?PR?ACTION55?DUOJI
0012EFH   0013C6H   0000D8H   BYTE   UNIT     CODE           ?PR?ACTION63?DUOJI
0013C7H   00149EH   0000D8H   BYTE   UNIT     CODE           ?PR?ACTION64?DUOJI
00149FH   001576H   0000D8H   BYTE   UNIT     CODE           ?PR?BIAOZHUN?DUOJI
001577H   001649H   0000D3H   BYTE   UNIT     CODE           ?PR?ACTION79?DUOJI
00164AH   001718H   0000CFH   BYTE   UNIT     CODE           ?PR?ACTION2_1?DUOJI
001719H   0017E5H   0000CDH   BYTE   UNIT     CODE           ?PR?ACTION2?DUOJI
0017E6H   0018B0H   0000CBH   BYTE   UNIT     CODE           ?PR?ACTION3?DUOJI
0018B1H   00197BH   0000CBH   BYTE   UNIT     CODE           ?PR?ACTION24_3?DUOJI
00197CH   001A46H   0000CBH   BYTE   UNIT     CODE           ?PR?ACTION28?DUOJI
001A47H   001B11H   0000CBH   BYTE   UNIT     CODE           ?PR?ACTION43?DUOJI
001B12H   001BDCH   0000CBH   BYTE   UNIT     CODE           ?PR?ACTION46?DUOJI
001BDDH   001CA7H   0000CBH   BYTE   UNIT     CODE           ?PR?ACTION49?DUOJI
001CA8H   001D72H   0000CBH   BYTE   UNIT     CODE           ?PR?ACTION56?DUOJI
001D73H   001E3DH   0000CBH   BYTE   UNIT     CODE           ?PR?ACTION57?DUOJI
001E3EH   001F08H   0000CBH   BYTE   UNIT     CODE           ?PR?ACTION58?DUOJI
001F09H   001FD3H   0000CBH   BYTE   UNIT     CODE           ?PR?ACTION59?DUOJI
001FD4H   00209EH   0000CBH   BYTE   UNIT     CODE           ?PR?ACTION60?DUOJI
00209FH   002169H   0000CBH   BYTE   UNIT     CODE           ?PR?ACTION87?DUOJI
00216AH   00222FH   0000C6H   BYTE   UNIT     CODE           ?PR?ACTION75?DUOJI
002230H   0022F5H   0000C6H   BYTE   UNIT     CODE           ?PR?ACTION77?DUOJI
0022F6H   0023BBH   0000C6H   BYTE   UNIT     CODE           ?PR?ACTION78?DUOJI
0023BCH   002474H   0000B9H   BYTE   UNIT     CODE           ?PR?ACTION34?DUOJI
002475H   002528H   0000B4H   BYTE   UNIT     CODE           ?PR?PART_TWO?DUOJI
002529H   0025D9H   0000B1H   BYTE   UNIT     CODE           ?PR?ACTION27?DUOJI
0025DAH   00268AH   0000B1H   BYTE   UNIT     CODE           ?PR?ACTION47?DUOJI
00268BH   002724H   00009AH   BYTE   UNIT     CODE           ?PR?_A?DUOJI
002725H   0027BBH   000097H   BYTE   UNIT     CODE           ?PR?ACTION41?DUOJI
0027BCH   002852H   000097H   BYTE   UNIT     CODE           ?PR?ACTION44?DUOJI
002853H   0028DEH   00008CH   BYTE   UNIT     CODE           ?C_C51STARTUP
0028DFH   002964H   000086H   BYTE   UNIT     CODE           ?PR?HUMAN_COMPUTER?ASR
002965H   0029E9H   000085H   BYTE   UNIT     CODE           ?PR?READY?DUOJI
0029EAH   002A6EH   000085H   BYTE   UNIT     CODE           ?PR?ACTION4?DUOJI
002A6FH   002AD9H   00006BH   BYTE   UNIT     CODE           ?PR?ACTION3_4?DUOJI
002ADAH   002B44H   00006BH   BYTE   UNIT     CODE           ?PR?ACTION29?DUOJI
002B45H   002BA2H   00005EH   BYTE   UNIT     CODE           ?PR?ACTION6?DUOJI
002BA3H   002C00H   00005EH   BYTE   UNIT     CODE           ?PR?ACTION7?DUOJI
002C01H   002C5EH   00005EH   BYTE   UNIT     CODE           ?PR?ACTION8?DUOJI
002C5FH   002CBCH   00005EH   BYTE   UNIT     CODE           ?PR?ACTION9?DUOJI
002CBDH   002D1AH   00005EH   BYTE   UNIT     CODE           ?PR?ACTION10?DUOJI
002D1BH   002D78H   00005EH   BYTE   UNIT     CODE           ?PR?ACTION11?DUOJI
002D79H   002DD6H   00005EH   BYTE   UNIT     CODE           ?PR?ACTION38?DUOJI
002DD7H   002E2CH   000056H   BYTE   UNIT     CODE           ?PR?ACTION24_2?DUOJI
002E2DH   002E82H   000056H   BYTE   UNIT     CODE           ?PR?ACTION37?DUOJI
002E83H   002ED8H   000056H   BYTE   UNIT     CODE           ?PR?ACTION68?DUOJI
002ED9H   002F2EH   000056H   BYTE   UNIT     CODE           ?PR?ACTION85?DUOJI
002F2FH   002F7FH   000051H   BYTE   UNIT     CODE           ?PR?ACTION1?DUOJI
LX51 LINKER/LOCATER V4.66.93.0                                                        07/16/2024  15:06:14  PAGE 3


002F80H   002FD0H   000051H   BYTE   UNIT     CODE           ?PR?ACTION3_1?DUOJI
002FD1H   003021H   000051H   BYTE   UNIT     CODE           ?PR?ACTION3_2?DUOJI
003022H   003072H   000051H   BYTE   UNIT     CODE           ?PR?ACTION3_3?DUOJI
003073H   0030C3H   000051H   BYTE   UNIT     CODE           ?PR?ACTION10_1?DUOJI
0030C4H   003114H   000051H   BYTE   UNIT     CODE           ?PR?ACTION10_2?DUOJI
003115H   003165H   000051H   BYTE   UNIT     CODE           ?PR?ACTION11_1?DUOJI
003166H   0031B6H   000051H   BYTE   UNIT     CODE           ?PR?ACTION12?DUOJI
0031B7H   003207H   000051H   BYTE   UNIT     CODE           ?PR?ACTION31?DUOJI
003208H   003258H   000051H   BYTE   UNIT     CODE           ?PR?ACTION35?DUOJI
003259H   0032A9H   000051H   BYTE   UNIT     CODE           ?PR?ACTION80?DUOJI
0032AAH   0032FAH   000051H   BYTE   UNIT     CODE           ?PR?ACTION83?DUOJI
0032FBH   003348H   00004EH   BYTE   UNIT     CODE           ?PR?MAIN?MAIN
003349H   003395H   00004DH   BYTE   UNIT     CODE           ?PR?ACTION61?DUOJI
003396H   0033E0H   00004BH   BYTE   UNIT     CODE           ?PR?UART4?UART
0033E1H   003429H   000049H   BYTE   UNIT     CODE           ?PR?ACTION15?DUOJI
00342AH   003472H   000049H   BYTE   UNIT     CODE           ?PR?ACTION24_1?DUOJI
003473H   0034BBH   000049H   BYTE   UNIT     CODE           ?PR?ACTION40?DUOJI
0034BCH   003504H   000049H   BYTE   UNIT     CODE           ?PR?ACTION45?DUOJI
003505H   00354DH   000049H   BYTE   UNIT     CODE           ?PR?ACTION50?DUOJI
00354EH   003596H   000049H   BYTE   UNIT     CODE           ?PR?ACTION54?DUOJI
003597H   0035DFH   000049H   BYTE   UNIT     CODE           ?PR?ACTION55_1?DUOJI
0035E0H   003628H   000049H   BYTE   UNIT     CODE           ?PR?ACTION65?DUOJI
003629H   003671H   000049H   BYTE   UNIT     CODE           ?PR?ACTION76?DUOJI
003672H   0036BAH   000049H   BYTE   UNIT     CODE           ?PR?ACTION82?DUOJI
0036BBH   003703H   000049H   BYTE   UNIT     CODE           ?PR?ACTION86?DUOJI
003704H   003748H   000045H   BYTE   UNIT     CODE           ?PR?UART3?UART
003749H   003785H   00003DH   BYTE   UNIT     CODE           ?PR?UART1234_INIT?UART
003786H   0037C2H   00003DH   BYTE   UNIT     CODE           ?PR?UART1?UART
0037C3H   0037FFH   00003DH   BYTE   UNIT     CODE           ?PR?SET_RXMODE_MA?NARFL2401
003800H   00383AH   00003BH   BYTE   UNIT     CODE           ?PR?INT1_INT?NARFL2401
00383BH   003875H   00003BH   BYTE   UNIT     CODE           ?C?LIB_CODE
003876H   0038ACH   000037H   BYTE   UNIT     CODE           ?PR?ACTION19?DUOJI
0038ADH   0038E3H   000037H   BYTE   UNIT     CODE           ?PR?ACTION20?DUOJI
0038E4H   00391AH   000037H   BYTE   UNIT     CODE           ?PR?ACTION21?DUOJI
00391BH   003951H   000037H   BYTE   UNIT     CODE           ?PR?ACTION22?DUOJI
003952H   003988H   000037H   BYTE   UNIT     CODE           ?PR?ACTION23?DUOJI
003989H   0039BFH   000037H   BYTE   UNIT     CODE           ?PR?ACTION24?DUOJI
0039C0H   0039F6H   000037H   BYTE   UNIT     CODE           ?PR?ACTION42?DUOJI
0039F7H   003A29H   000033H   BYTE   UNIT     CODE           ?PR?_NRF24L01_MA_READ_BUF?NARFL2401
003A2AH   003A5BH   000032H   BYTE   UNIT     CODE           ?PR?_NRF24L01_MA_WRITE_BUF?NARFL2401
003A5CH   003A88H   00002DH   BYTE   UNIT     CODE           ?PR?ACTION?DUOJI
003A89H   003AB3H   00002BH   BYTE   UNIT     CODE           ?PR?_SENDSTRINGBYUART3?UART
003AB4H   003ADEH   00002BH   BYTE   UNIT     CODE           ?PR?_SENDSTRINGBYUART4?UART
003ADFH   003B08H   00002AH   BYTE   UNIT     CODE           ?PR?ACTION1_1?DUOJI
003B09H   003B32H   00002AH   BYTE   UNIT     CODE           ?PR?ACTION16?DUOJI
003B33H   003B5CH   00002AH   BYTE   UNIT     CODE           ?PR?ACTION17?DUOJI
003B5DH   003B86H   00002AH   BYTE   UNIT     CODE           ?PR?ACTION30?DUOJI
003B87H   003BB0H   00002AH   BYTE   UNIT     CODE           ?PR?ACTION36?DUOJI
003BB1H   003BDAH   00002AH   BYTE   UNIT     CODE           ?PR?ACTION71?DUOJI
003BDBH   003C01H   000027H   BYTE   UNIT     CODE           ?PR?_NRF24L01_RXPACKET_MA?NARFL2401
003C02H   003C26H   000025H   BYTE   UNIT     CODE           ?PR?_SENDSTRINGBYUART1?UART
003C27H   003C48H   000022H   BYTE   UNIT     CODE           ?PR?ACTION62?DUOJI
003C49H   003C6AH   000022H   BYTE   UNIT     CODE           ?PR?ACTION69?DUOJI
003C6BH   003C8AH   000020H   BYTE   UNIT     CODE           ?PR?_DELAY_MS?UART
003C8BH   003CA9H   00001FH   BYTE   UNIT     CODE           ?PR?CLR_BUF2?UART
003CAAH   003CC8H   00001FH   BYTE   UNIT     CODE           ?PR?CLR_BUF3?UART
003CC9H   003CE7H   00001FH   BYTE   UNIT     CODE           ?PR?CLR_BUF4?UART
003CE8H   003D04H   00001DH   BYTE   UNIT     CODE           ?PR?ACTION66?DUOJI
003D05H   003D21H   00001DH   BYTE   UNIT     CODE           ?PR?ACTION70?DUOJI
003D22H   003D3EH   00001DH   BYTE   UNIT     CODE           ?PR?ACTION72?DUOJI
003D3FH   003D5BH   00001DH   BYTE   UNIT     CODE           ?PR?ACTION81?DUOJI
003D5CH   003D78H   00001DH   BYTE   UNIT     CODE           ?PR?ACTION84?DUOJI
003D79H   003D94H   00001CH   BYTE   UNIT     CODE           ?PR?ASR_INIT?ASR
003D95H   003DB0H   00001CH   BYTE   UNIT     CODE           ?PR?ASR_INIT1?ASR
003DB1H   003DCCH   00001CH   BYTE   UNIT     CODE           ?PR?ASR_INIT2?ASR
LX51 LINKER/LOCATER V4.66.93.0                                                        07/16/2024  15:06:14  PAGE 4


003DCDH   003DE8H   00001CH   BYTE   UNIT     CODE           ?PR?START_REPEATEDLY_SPEECH_RECOGNITION?ASR
003DE9H   003E04H   00001CH   BYTE   UNIT     CODE           ?PR?ASR_END?ASR
003E05H   003E1FH   00001BH   BYTE   UNIT     CODE           ?C_INITSEG
003E20H   003E39H   00001AH   BYTE   UNIT     CODE           ?PR?WAGH?UART
003E3AH   003E53H   00001AH   BYTE   UNIT     CODE           ?PR?RF_RECEDAT?NARFL2401
003E54H   003E68H   000015H   BYTE   UNIT     CODE           ?PR?ACTION67?DUOJI
003E69H   003E7CH   000014H   BYTE   UNIT     CODE           ?PR?ZHONGDUANYI?NARFL2401
003E7DH   003E8FH   000013H   BYTE   UNIT     CODE           ?PR?_NRF24L01_MA_WRITE_REG?NARFL2401
003E90H   003E9FH   000010H   BYTE   UNIT     CODE           ?PR?DANCING?DUOJI
003EA0H   003EAEH   00000FH   BYTE   UNIT     CODE           ?PR?DELAY2500MS?ASR
003EAFH   003EBDH   00000FH   BYTE   UNIT     CODE           ?PR?DELAY5000MS?ASR
003EBEH   003ECCH   00000FH   BYTE   UNIT     CODE           ?PR?DELAY6000MS?ASR
003ECDH   003EDBH   00000FH   BYTE   UNIT     CODE           ?PR?DELAY3500MS?ASR
003EDCH   003EE8H   00000DH   BYTE   UNIT     CODE           ?PR?_NRF24L01_MA_READ_REG?NARFL2401
003EE9H   003EF3H   00000BH   BYTE   UNIT     CODE           ?PR?_SENDDATABYUART2?UART
003EF4H   003EFEH   00000BH   BYTE   UNIT     CODE           ?PR?_SENDDATABYUART3?UART
003EFFH   003F09H   00000BH   BYTE   UNIT     CODE           ?PR?_SENDDATABYUART4?UART
003F0AH   003F13H   00000AH   BYTE   UNIT     CODE           ?PR?INITSPI?NARFL2401
003F14H   003F1BH   000008H   BYTE   UNIT     CODE           ?PR?_SENDDATABYUART1?UART
003F1CH   003F21H   000006H   BYTE   UNIT     CODE           ?PR?DELAY10000MS?ASR
003F22H   003F36H   000015H   BYTE   UNIT     CONST          ?CO?MAIN

* * * * * * * * * * *  X D A T A   M E M O R Y  * * * * * * * * * * * * *
000000H   000015H   000016H   BYTE   UNIT     XDATA          ?XD?UART



OVERLAY MAP OF MODULE:   .\Objects\XPU (?C_STARTUP)


FUNCTION/MODULE                               BIT_GROUP   DATA_GROUP 
--> CALLED FUNCTION/MODULE                   START  STOP  START  STOP
=====================================================================
?C_C51STARTUP                                ----- -----  ----- -----
  +--> MAIN/MAIN
  +--> ?C_INITSEG

MAIN/MAIN                                    ----- -----  ----- -----
  +--> WAGH/UART
  +--> UART1234_INIT/UART
  +--> INIT_NRF24L01_MA/NARFL2401
  +--> SET_RXMODE_MA/NARFL2401
  +--> ZHONGDUANYI/NARFL2401
  +--> START/DUOJI
  +--> _SENDSTRINGBYUART1/UART
  +--> DANCING/DUOJI
  +--> _DELAY_MS/UART

WAGH/UART                                    ----- -----  ----- -----

UART1234_INIT/UART                           ----- -----  ----- -----

INIT_NRF24L01_MA/NARFL2401                   ----- -----  ----- -----
  +--> _DELAY_MS/UART
  +--> INITSPI/NARFL2401

_DELAY_MS/UART                               ----- -----  ----- -----

INITSPI/NARFL2401                            ----- -----  ----- -----

SET_RXMODE_MA/NARFL2401                      ----- -----  ----- -----
  +--> _NRF24L01_MA_WRITE_BUF/NARFL2401
  +--> _NRF24L01_MA_WRITE_REG/NARFL2401

_NRF24L01_MA_WRITE_BUF/NARFL2401             ----- -----  0015H 0019H
LX51 LINKER/LOCATER V4.66.93.0                                                        07/16/2024  15:06:14  PAGE 5


  +--> _SPI_RW/NARFL2401

_SPI_RW/NARFL2401                            ----- -----  ----- -----

_NRF24L01_MA_WRITE_REG/NARFL2401             ----- -----  ----- -----
  +--> _SPI_RW/NARFL2401

ZHONGDUANYI/NARFL2401                        ----- -----  ----- -----

START/DUOJI                                  ----- -----  ----- -----
  +--> _A/DUOJI
  +--> ACTION/DUOJI

_A/DUOJI                                     ----- -----  0015H 001AH
  +--> _SENDDATABYUART3/UART
  +--> _DELAY_MS/UART

_SENDDATABYUART3/UART                        ----- -----  ----- -----

ACTION/DUOJI                                 ----- -----  ----- -----
  +--> _SENDDATABYUART3/UART

_SENDSTRINGBYUART1/UART                      ----- -----  0015H 0017H
  +--> _SENDDATABYUART1/UART

_SENDDATABYUART1/UART                        ----- -----  ----- -----

DANCING/DUOJI                                ----- -----  ----- -----
  +--> PART_ONE/DUOJI
  +--> PART_TWO/DUOJI
  +--> PART_THREE/DUOJI
  +--> START/DUOJI

PART_ONE/DUOJI                               ----- -----  ----- -----
  +--> START/DUOJI
  +--> _DELAY_MS/UART
  +--> ACTION1/DUOJI
  +--> ACTION1_1/DUOJI
  +--> ACTION2/DUOJI
  +--> ACTION2_1/DUOJI
  +--> ACTION3/DUOJI
  +--> ACTION3_1/DUOJI
  +--> ACTION3_2/DUOJI
  +--> ACTION3_3/DUOJI
  +--> ACTION3_4/DUOJI
  +--> ACTION4/DUOJI
  +--> ACTION5/DUOJI
  +--> ACTION6/DUOJI
  +--> ACTION7/DUOJI
  +--> ACTION8/DUOJI
  +--> ACTION9/DUOJI
  +--> ACTION10/DUOJI
  +--> ACTION10_1/DUOJI
  +--> ACTION10_2/DUOJI
  +--> ACTION11/DUOJI
  +--> ACTION11_1/DUOJI
  +--> ACTION12/DUOJI
  +--> ACTION12_1/DUOJI
  +--> ACTION13/DUOJI
  +--> ACTION14/DUOJI
  +--> ACTION15/DUOJI
  +--> ACTION16/DUOJI
  +--> ACTION17/DUOJI
  +--> ACTION18/DUOJI
  +--> ACTION19/DUOJI
LX51 LINKER/LOCATER V4.66.93.0                                                        07/16/2024  15:06:14  PAGE 6


  +--> ACTION20/DUOJI
  +--> ACTION21/DUOJI
  +--> ACTION22/DUOJI
  +--> ACTION23/DUOJI
  +--> ACTION24/DUOJI
  +--> ACTION24_1/DUOJI
  +--> ACTION24_2/DUOJI
  +--> ACTION24_3/DUOJI
  +--> ACTION24_4/DUOJI
  +--> ACTION25/DUOJI
  +--> ACTION26/DUOJI
  +--> ACTION27/DUOJI
  +--> ACTION28/DUOJI
  +--> ACTION29/DUOJI
  +--> ACTION30/DUOJI
  +--> ACTION31/DUOJI
  +--> ACTION34/DUOJI
  +--> ACTION35/DUOJI
  +--> ACTION36/DUOJI
  +--> ACTION37/DUOJI
  +--> ACTION38/DUOJI
  +--> ACTION39/DUOJI
  +--> ACTION40/DUOJI
  +--> ACTION41/DUOJI
  +--> ACTION42/DUOJI
  +--> ACTION43/DUOJI
  +--> ACTION44/DUOJI
  +--> ACTION45/DUOJI

ACTION1/DUOJI                                ----- -----  ----- -----
  +--> _A/DUOJI
  +--> ACTION/DUOJI

ACTION1_1/DUOJI                              ----- -----  ----- -----
  +--> _A/DUOJI
  +--> ACTION/DUOJI

ACTION2/DUOJI                                ----- -----  ----- -----
  +--> _A/DUOJI
  +--> ACTION/DUOJI

ACTION2_1/DUOJI                              ----- -----  ----- -----
  +--> _A/DUOJI
  +--> ACTION/DUOJI

ACTION3/DUOJI                                ----- -----  ----- -----
  +--> _A/DUOJI
  +--> ACTION/DUOJI

ACTION3_1/DUOJI                              ----- -----  ----- -----
  +--> _A/DUOJI
  +--> ACTION/DUOJI

ACTION3_2/DUOJI                              ----- -----  ----- -----
  +--> _A/DUOJI
  +--> ACTION/DUOJI

ACTION3_3/DUOJI                              ----- -----  ----- -----
  +--> _A/DUOJI
  +--> ACTION/DUOJI

ACTION3_4/DUOJI                              ----- -----  ----- -----
  +--> _A/DUOJI
  +--> ACTION/DUOJI

LX51 LINKER/LOCATER V4.66.93.0                                                        07/16/2024  15:06:14  PAGE 7


ACTION4/DUOJI                                ----- -----  ----- -----
  +--> _A/DUOJI
  +--> ACTION/DUOJI

ACTION5/DUOJI                                ----- -----  ----- -----
  +--> _A/DUOJI
  +--> ACTION/DUOJI

ACTION6/DUOJI                                ----- -----  ----- -----
  +--> _A/DUOJI
  +--> ACTION/DUOJI

ACTION7/DUOJI                                ----- -----  ----- -----
  +--> _A/DUOJI
  +--> ACTION/DUOJI

ACTION8/DUOJI                                ----- -----  ----- -----
  +--> _A/DUOJI
  +--> ACTION/DUOJI

ACTION9/DUOJI                                ----- -----  ----- -----
  +--> _A/DUOJI
  +--> ACTION/DUOJI

ACTION10/DUOJI                               ----- -----  ----- -----
  +--> _A/DUOJI
  +--> ACTION/DUOJI

ACTION10_1/DUOJI                             ----- -----  ----- -----
  +--> _A/DUOJI
  +--> ACTION/DUOJI

ACTION10_2/DUOJI                             ----- -----  ----- -----
  +--> _A/DUOJI
  +--> ACTION/DUOJI

ACTION11/DUOJI                               ----- -----  ----- -----
  +--> _A/DUOJI
  +--> ACTION/DUOJI

ACTION11_1/DUOJI                             ----- -----  ----- -----
  +--> _A/DUOJI
  +--> ACTION/DUOJI

ACTION12/DUOJI                               ----- -----  ----- -----
  +--> _A/DUOJI
  +--> ACTION/DUOJI

ACTION12_1/DUOJI                             ----- -----  ----- -----
  +--> _A/DUOJI
  +--> ACTION/DUOJI

ACTION13/DUOJI                               ----- -----  ----- -----
  +--> _A/DUOJI
  +--> ACTION/DUOJI

ACTION14/DUOJI                               ----- -----  ----- -----
  +--> _A/DUOJI
  +--> ACTION/DUOJI

ACTION15/DUOJI                               ----- -----  ----- -----
  +--> _A/DUOJI
  +--> ACTION/DUOJI

ACTION16/DUOJI                               ----- -----  ----- -----
LX51 LINKER/LOCATER V4.66.93.0                                                        07/16/2024  15:06:14  PAGE 8


  +--> _A/DUOJI
  +--> ACTION/DUOJI

ACTION17/DUOJI                               ----- -----  ----- -----
  +--> _A/DUOJI
  +--> ACTION/DUOJI

ACTION18/DUOJI                               ----- -----  ----- -----
  +--> _A/DUOJI
  +--> ACTION/DUOJI

ACTION19/DUOJI                               ----- -----  ----- -----
  +--> _A/DUOJI
  +--> ACTION/DUOJI

ACTION20/DUOJI                               ----- -----  ----- -----
  +--> _A/DUOJI
  +--> ACTION/DUOJI

ACTION21/DUOJI                               ----- -----  ----- -----
  +--> _A/DUOJI
  +--> ACTION/DUOJI

ACTION22/DUOJI                               ----- -----  ----- -----
  +--> _A/DUOJI
  +--> ACTION/DUOJI

ACTION23/DUOJI                               ----- -----  ----- -----
  +--> _A/DUOJI
  +--> ACTION/DUOJI

ACTION24/DUOJI                               ----- -----  ----- -----
  +--> _A/DUOJI
  +--> ACTION/DUOJI

ACTION24_1/DUOJI                             ----- -----  ----- -----
  +--> _A/DUOJI
  +--> ACTION/DUOJI

ACTION24_2/DUOJI                             ----- -----  ----- -----
  +--> _A/DUOJI
  +--> ACTION/DUOJI

ACTION24_3/DUOJI                             ----- -----  ----- -----
  +--> _A/DUOJI
  +--> ACTION/DUOJI

ACTION24_4/DUOJI                             ----- -----  ----- -----
  +--> _A/DUOJI
  +--> ACTION/DUOJI

ACTION25/DUOJI                               ----- -----  ----- -----
  +--> _A/DUOJI
  +--> ACTION/DUOJI

ACTION26/DUOJI                               ----- -----  ----- -----
  +--> _A/DUOJI
  +--> ACTION/DUOJI

ACTION27/DUOJI                               ----- -----  ----- -----
  +--> _A/DUOJI
  +--> ACTION/DUOJI

ACTION28/DUOJI                               ----- -----  ----- -----
  +--> _A/DUOJI
LX51 LINKER/LOCATER V4.66.93.0                                                        07/16/2024  15:06:14  PAGE 9


  +--> ACTION/DUOJI

ACTION29/DUOJI                               ----- -----  ----- -----
  +--> _A/DUOJI
  +--> ACTION/DUOJI

ACTION30/DUOJI                               ----- -----  ----- -----
  +--> _A/DUOJI
  +--> ACTION/DUOJI

ACTION31/DUOJI                               ----- -----  ----- -----
  +--> _A/DUOJI
  +--> ACTION/DUOJI

ACTION34/DUOJI                               ----- -----  ----- -----
  +--> _A/DUOJI
  +--> ACTION/DUOJI

ACTION35/DUOJI                               ----- -----  ----- -----
  +--> _A/DUOJI
  +--> ACTION/DUOJI

ACTION36/DUOJI                               ----- -----  ----- -----
  +--> _A/DUOJI
  +--> ACTION/DUOJI

ACTION37/DUOJI                               ----- -----  ----- -----
  +--> _A/DUOJI
  +--> ACTION/DUOJI

ACTION38/DUOJI                               ----- -----  ----- -----
  +--> _A/DUOJI
  +--> ACTION/DUOJI

ACTION39/DUOJI                               ----- -----  ----- -----
  +--> _A/DUOJI
  +--> ACTION/DUOJI

ACTION40/DUOJI                               ----- -----  ----- -----
  +--> _A/DUOJI
  +--> ACTION/DUOJI

ACTION41/DUOJI                               ----- -----  ----- -----
  +--> _A/DUOJI
  +--> ACTION/DUOJI

ACTION42/DUOJI                               ----- -----  ----- -----
  +--> _A/DUOJI
  +--> ACTION/DUOJI

ACTION43/DUOJI                               ----- -----  ----- -----
  +--> _A/DUOJI
  +--> ACTION/DUOJI

ACTION44/DUOJI                               ----- -----  ----- -----
  +--> _A/DUOJI
  +--> ACTION/DUOJI

ACTION45/DUOJI                               ----- -----  ----- -----
  +--> _A/DUOJI
  +--> ACTION/DUOJI

PART_TWO/DUOJI                               ----- -----  ----- -----
  +--> ACTION43/DUOJI
  +--> _DELAY_MS/UART
LX51 LINKER/LOCATER V4.66.93.0                                                        07/16/2024  15:06:14  PAGE 10


  +--> ACTION44/DUOJI
  +--> ACTION46/DUOJI
  +--> ACTION47/DUOJI
  +--> ACTION48/DUOJI
  +--> ACTION49/DUOJI
  +--> ACTION50/DUOJI
  +--> ACTION51/DUOJI
  +--> ACTION52/DUOJI
  +--> ACTION53/DUOJI
  +--> ACTION54/DUOJI
  +--> ACTION55/DUOJI
  +--> ACTION55_1/DUOJI
  +--> ACTION56/DUOJI
  +--> ACTION57/DUOJI
  +--> ACTION58/DUOJI
  +--> ACTION59/DUOJI
  +--> ACTION60/DUOJI

ACTION46/DUOJI                               ----- -----  ----- -----
  +--> _A/DUOJI
  +--> ACTION/DUOJI

ACTION47/DUOJI                               ----- -----  ----- -----
  +--> _A/DUOJI
  +--> ACTION/DUOJI

ACTION48/DUOJI                               ----- -----  ----- -----
  +--> _A/DUOJI
  +--> ACTION/DUOJI

ACTION49/DUOJI                               ----- -----  ----- -----
  +--> _A/DUOJI
  +--> ACTION/DUOJI

ACTION50/DUOJI                               ----- -----  ----- -----
  +--> _A/DUOJI
  +--> ACTION/DUOJI

ACTION51/DUOJI                               ----- -----  ----- -----
  +--> _A/DUOJI
  +--> ACTION/DUOJI

ACTION52/DUOJI                               ----- -----  ----- -----
  +--> _A/DUOJI
  +--> ACTION/DUOJI

ACTION53/DUOJI                               ----- -----  ----- -----
  +--> _A/DUOJI
  +--> ACTION/DUOJI

ACTION54/DUOJI                               ----- -----  ----- -----
  +--> _A/DUOJI
  +--> ACTION/DUOJI

ACTION55/DUOJI                               ----- -----  ----- -----
  +--> _A/DUOJI
  +--> ACTION/DUOJI

ACTION55_1/DUOJI                             ----- -----  ----- -----
  +--> _A/DUOJI
  +--> ACTION/DUOJI

ACTION56/DUOJI                               ----- -----  ----- -----
  +--> _A/DUOJI
  +--> ACTION/DUOJI
LX51 LINKER/LOCATER V4.66.93.0                                                        07/16/2024  15:06:14  PAGE 11



ACTION57/DUOJI                               ----- -----  ----- -----
  +--> _A/DUOJI
  +--> ACTION/DUOJI

ACTION58/DUOJI                               ----- -----  ----- -----
  +--> _A/DUOJI
  +--> ACTION/DUOJI

ACTION59/DUOJI                               ----- -----  ----- -----
  +--> _A/DUOJI
  +--> ACTION/DUOJI

ACTION60/DUOJI                               ----- -----  ----- -----
  +--> _A/DUOJI
  +--> ACTION/DUOJI

PART_THREE/DUOJI                             ----- -----  ----- -----
  +--> ACTION60/DUOJI
  +--> _DELAY_MS/UART
  +--> ACTION61/DUOJI
  +--> ACTION62/DUOJI
  +--> ACTION63/DUOJI
  +--> ACTION64/DUOJI
  +--> ACTION65/DUOJI
  +--> ACTION66/DUOJI
  +--> ACTION67/DUOJI
  +--> ACTION68/DUOJI
  +--> START/DUOJI
  +--> ACTION1/DUOJI
  +--> ACTION1_1/DUOJI
  +--> ACTION2/DUOJI
  +--> ACTION2_1/DUOJI
  +--> BIAOZHUN/DUOJI
  +--> ACTION69/DUOJI
  +--> ACTION70/DUOJI
  +--> ACTION71/DUOJI
  +--> ACTION72/DUOJI
  +--> ACTION73/DUOJI
  +--> READY/DUOJI
  +--> ACTION3/DUOJI
  +--> ACTION3_1/DUOJI
  +--> ACTION3_2/DUOJI
  +--> ACTION3_3/DUOJI
  +--> ACTION3_4/DUOJI
  +--> ACTION4/DUOJI
  +--> ACTION75/DUOJI
  +--> ACTION76/DUOJI
  +--> ACTION77/DUOJI
  +--> ACTION78/DUOJI
  +--> ACTION79/DUOJI
  +--> ACTION80/DUOJI
  +--> ACTION81/DUOJI
  +--> ACTION82/DUOJI
  +--> ACTION83/DUOJI
  +--> ACTION84/DUOJI
  +--> ACTION85/DUOJI
  +--> ACTION86/DUOJI
  +--> ACTION87/DUOJI

ACTION61/DUOJI                               ----- -----  ----- -----
  +--> _A/DUOJI
  +--> ACTION/DUOJI

ACTION62/DUOJI                               ----- -----  ----- -----
LX51 LINKER/LOCATER V4.66.93.0                                                        07/16/2024  15:06:14  PAGE 12


  +--> _A/DUOJI
  +--> ACTION/DUOJI

ACTION63/DUOJI                               ----- -----  ----- -----
  +--> _A/DUOJI
  +--> ACTION/DUOJI

ACTION64/DUOJI                               ----- -----  ----- -----
  +--> _A/DUOJI
  +--> ACTION/DUOJI

ACTION65/DUOJI                               ----- -----  ----- -----
  +--> _A/DUOJI
  +--> ACTION/DUOJI

ACTION66/DUOJI                               ----- -----  ----- -----
  +--> _A/DUOJI
  +--> ACTION/DUOJI

ACTION67/DUOJI                               ----- -----  ----- -----
  +--> _A/DUOJI
  +--> ACTION/DUOJI

ACTION68/DUOJI                               ----- -----  ----- -----
  +--> _A/DUOJI
  +--> ACTION/DUOJI

BIAOZHUN/DUOJI                               ----- -----  ----- -----
  +--> _A/DUOJI
  +--> ACTION/DUOJI

ACTION69/DUOJI                               ----- -----  ----- -----
  +--> _A/DUOJI
  +--> ACTION/DUOJI

ACTION70/DUOJI                               ----- -----  ----- -----
  +--> _A/DUOJI
  +--> ACTION/DUOJI

ACTION71/DUOJI                               ----- -----  ----- -----
  +--> _A/DUOJI
  +--> ACTION/DUOJI

ACTION72/DUOJI                               ----- -----  ----- -----
  +--> _A/DUOJI
  +--> ACTION/DUOJI

ACTION73/DUOJI                               ----- -----  ----- -----
  +--> _A/DUOJI
  +--> ACTION/DUOJI

READY/DUOJI                                  ----- -----  ----- -----
  +--> _A/DUOJI
  +--> ACTION/DUOJI

ACTION75/DUOJI                               ----- -----  ----- -----
  +--> _A/DUOJI
  +--> ACTION/DUOJI

ACTION76/DUOJI                               ----- -----  ----- -----
  +--> _A/DUOJI
  +--> ACTION/DUOJI

ACTION77/DUOJI                               ----- -----  ----- -----
  +--> _A/DUOJI
LX51 LINKER/LOCATER V4.66.93.0                                                        07/16/2024  15:06:14  PAGE 13


  +--> ACTION/DUOJI

ACTION78/DUOJI                               ----- -----  ----- -----
  +--> _A/DUOJI
  +--> ACTION/DUOJI

ACTION79/DUOJI                               ----- -----  ----- -----
  +--> _A/DUOJI
  +--> ACTION/DUOJI

ACTION80/DUOJI                               ----- -----  ----- -----
  +--> _A/DUOJI
  +--> ACTION/DUOJI

ACTION81/DUOJI                               ----- -----  ----- -----
  +--> _A/DUOJI
  +--> ACTION/DUOJI

ACTION82/DUOJI                               ----- -----  ----- -----
  +--> _A/DUOJI
  +--> ACTION/DUOJI

ACTION83/DUOJI                               ----- -----  ----- -----
  +--> _A/DUOJI
  +--> ACTION/DUOJI

ACTION84/DUOJI                               ----- -----  ----- -----
  +--> _A/DUOJI
  +--> ACTION/DUOJI

ACTION85/DUOJI                               ----- -----  ----- -----
  +--> _A/DUOJI
  +--> ACTION/DUOJI

ACTION86/DUOJI                               ----- -----  ----- -----
  +--> _A/DUOJI
  +--> ACTION/DUOJI

ACTION87/DUOJI                               ----- -----  ----- -----
  +--> _A/DUOJI
  +--> ACTION/DUOJI

?C_INITSEG                                   ----- -----  ----- -----

*** NEW ROOT *******************************

UART1/UART                                   ----- -----  ----- -----

*** NEW ROOT *******************************

UART2/UART                                   ----- -----  ----- -----

*** NEW ROOT *******************************

UART3/UART                                   ----- -----  ----- -----

*** NEW ROOT *******************************

UART4/UART                                   ----- -----  ----- -----

*** NEW ROOT *******************************

INT1_INT/NARFL2401                           ----- -----  ----- -----
  +--> RF_RECEDAT/NARFL2401

LX51 LINKER/LOCATER V4.66.93.0                                                        07/16/2024  15:06:14  PAGE 14


RF_RECEDAT/NARFL2401                         ----- -----  ----- -----
  +--> _NRF24L01_RXPACKET_MA/NARFL2401
  +--> _DELAY_MS/UART

_NRF24L01_RXPACKET_MA/NARFL2401              ----- -----  ----- -----
  +--> _NRF24L01_MA_READ_REG/NARFL2401
  +--> _NRF24L01_MA_WRITE_REG/NARFL2401
  +--> _NRF24L01_MA_READ_BUF/NARFL2401

_NRF24L01_MA_READ_REG/NARFL2401              ----- -----  ----- -----
  +--> _SPI_RW/NARFL2401

_NRF24L01_MA_READ_BUF/NARFL2401              ----- -----  001BH 001FH
  +--> _SPI_RW/NARFL2401



PUBLIC SYMBOLS OF MODULE:  .\Objects\XPU (?C_STARTUP)


      VALUE       CLASS    TYPE      PUBLIC SYMBOL NAME
      =================================================
      0000001BH   DATA     BYTE      ?_NRF24L01_MA_Read_Buf?BYTE
      00000015H   DATA     BYTE      ?_NRF24L01_MA_Write_Buf?BYTE
      0100383BH   CODE     ---       ?C?CLDPTR
      00000000H   NUMBER   ---       ?C?CODESEG
      01003854H   CODE     ---       ?C?CSTOPTR
      00000000H   NUMBER   ---       ?C?XDATASEG
      0100289AH   CODE     ---       ?C_START
      01000000H   CODE     ---       ?C_STARTUP
      01002693H   CODE     ---       _a
      01003C6BH   CODE     ---       _delay_ms
      010039F7H   CODE     ---       _NRF24L01_MA_Read_Buf
      01003EDCH   CODE     ---       _NRF24L01_MA_Read_Reg
      01003A2AH   CODE     ---       _NRF24L01_MA_Write_Buf
      01003E7DH   CODE     ---       _NRF24L01_MA_Write_Reg
      01003BDBH   CODE     ---       _NRF24L01_RxPacket_MA
      01003F14H   CODE     ---       _SendDataByUart1
      01003EE9H   CODE     ---       _SendDataByUart2
      01003EF4H   CODE     ---       _SendDataByUart3
      01003EFFH   CODE     ---       _SendDataByUart4
      01003C02H   CODE     ---       _SendStringByUart1
      01003A89H   CODE     ---       _SendStringByUart3
      01003AB4H   CODE     ---       _SendStringByUart4
      01000016H   CODE     ---       _SPI_RW
*SFR* 000000D0H.6 DATA     BIT       AC
*SFR* 000000E0H   DATA     BYTE      ACC
*SFR* 000000E0H.0 DATA     BIT       ACC0
*SFR* 000000E0H.1 DATA     BIT       ACC1
*SFR* 000000E0H.2 DATA     BIT       ACC2
*SFR* 000000E0H.3 DATA     BIT       ACC3
*SFR* 000000E0H.4 DATA     BIT       ACC4
*SFR* 000000E0H.5 DATA     BIT       ACC5
*SFR* 000000E0H.6 DATA     BIT       ACC6
*SFR* 000000E0H.7 DATA     BIT       ACC7
      01003A5CH   CODE     ---       action
      01002F2FH   CODE     ---       action1
      01002CBDH   CODE     ---       action10
      01003073H   CODE     ---       action10_1
      010030C4H   CODE     ---       action10_2
      01002D1BH   CODE     ---       action11
      01003115H   CODE     ---       action11_1
      01003166H   CODE     ---       action12
      01000C27H   CODE     ---       action12_1
      01000D03H   CODE     ---       action13
LX51 LINKER/LOCATER V4.66.93.0                                                        07/16/2024  15:06:14  PAGE 15


      01000DDFH   CODE     ---       action14
      010033E1H   CODE     ---       action15
      01003B09H   CODE     ---       action16
      01003B33H   CODE     ---       action17
      010007C7H   CODE     ---       action18
      01003876H   CODE     ---       action19
      01003ADFH   CODE     ---       action1_1
      01001719H   CODE     ---       action2
      010038ADH   CODE     ---       action20
      010038E4H   CODE     ---       action21
      0100391BH   CODE     ---       action22
      01003952H   CODE     ---       action23
      01003989H   CODE     ---       action24
      0100342AH   CODE     ---       action24_1
      01002DD7H   CODE     ---       action24_2
      010018B1H   CODE     ---       action24_3
      01000EB7H   CODE     ---       action24_4
      010008A7H   CODE     ---       action25
      01000987H   CODE     ---       action26
      01002529H   CODE     ---       action27
      0100197CH   CODE     ---       action28
      01002ADAH   CODE     ---       action29
      0100164AH   CODE     ---       action2_1
      010017E6H   CODE     ---       action3
      01003B5DH   CODE     ---       action30
      010031B7H   CODE     ---       action31
      010023BCH   CODE     ---       action34
      01003208H   CODE     ---       action35
      01003B87H   CODE     ---       action36
      01002E2DH   CODE     ---       action37
      01002D79H   CODE     ---       action38
      01000F8FH   CODE     ---       action39
      01002F80H   CODE     ---       action3_1
      01002FD1H   CODE     ---       action3_2
      01003022H   CODE     ---       action3_3
      01002A6FH   CODE     ---       action3_4
      010029EAH   CODE     ---       action4
      01003473H   CODE     ---       action40
      01002725H   CODE     ---       action41
      010039C0H   CODE     ---       action42
      01001A47H   CODE     ---       action43
      010027BCH   CODE     ---       action44
      010034BCH   CODE     ---       action45
      01001B12H   CODE     ---       action46
      010025DAH   CODE     ---       action47
      01000026H   CODE     ---       action48
      01001BDDH   CODE     ---       action49
      010006E7H   CODE     ---       action5
      01003505H   CODE     ---       action50
      01001067H   CODE     ---       action51
      0100113FH   CODE     ---       action52
      01000A67H   CODE     ---       action53
      0100354EH   CODE     ---       action54
      01001217H   CODE     ---       action55
      01003597H   CODE     ---       action55_1
      01001CA8H   CODE     ---       action56
      01001D73H   CODE     ---       action57
      01001E3EH   CODE     ---       action58
      01001F09H   CODE     ---       action59
      01002B45H   CODE     ---       action6
      01001FD4H   CODE     ---       action60
      01003349H   CODE     ---       action61
      01003C27H   CODE     ---       action62
      010012EFH   CODE     ---       action63
      010013C7H   CODE     ---       action64
LX51 LINKER/LOCATER V4.66.93.0                                                        07/16/2024  15:06:14  PAGE 16


      010035E0H   CODE     ---       action65
      01003CE8H   CODE     ---       action66
      01003E54H   CODE     ---       action67
      01002E83H   CODE     ---       action68
      01003C49H   CODE     ---       action69
      01002BA3H   CODE     ---       action7
      01003D05H   CODE     ---       action70
      01003BB1H   CODE     ---       action71
      01003D22H   CODE     ---       action72
      01000B47H   CODE     ---       action73
      0100216AH   CODE     ---       action75
      01003629H   CODE     ---       action76
      01002230H   CODE     ---       action77
      010022F6H   CODE     ---       action78
      01001577H   CODE     ---       action79
      01002C01H   CODE     ---       action8
      01003259H   CODE     ---       action80
      01003D3FH   CODE     ---       action81
      01003672H   CODE     ---       action82
      010032AAH   CODE     ---       action83
      01003D5CH   CODE     ---       action84
      01002ED9H   CODE     ---       action85
      010036BBH   CODE     ---       action86
      0100209FH   CODE     ---       action87
      01002C5FH   CODE     ---       action9
*SFR* 000000BCH   DATA     BYTE      ADC_CONTR
*SFR* 000000BDH   DATA     BYTE      ADC_RES
*SFR* 000000BEH   DATA     BYTE      ADC_RESL
      01003DE9H   CODE     ---       ASR_end
      01003D79H   CODE     ---       ASR_init
      01003D95H   CODE     ---       ASR_init1
      01003DB1H   CODE     ---       ASR_init2
*SFR* 0000008EH   DATA     BYTE      AUXR
*SFR* 000000A2H   DATA     BYTE      AUXR1
*SFR* 0000008FH   DATA     BYTE      AUXR2
*SFR* 000000F0H   DATA     BYTE      B
*SFR* 000000F0H.0 DATA     BIT       B0
*SFR* 000000F0H.1 DATA     BIT       B1
*SFR* 000000F0H.2 DATA     BIT       B2
*SFR* 000000F0H.3 DATA     BIT       B3
*SFR* 000000F0H.4 DATA     BIT       B4
*SFR* 000000F0H.5 DATA     BIT       B5
*SFR* 000000F0H.6 DATA     BIT       B6
*SFR* 000000F0H.7 DATA     BIT       B7
      0100149FH   CODE     ---       biaozhun
*SFR* 000000A1H   DATA     BYTE      BUS_SPEED
*SFR* 000000FAH   DATA     BYTE      CCAP0H
*SFR* 000000EAH   DATA     BYTE      CCAP0L
*SFR* 000000FBH   DATA     BYTE      CCAP1H
*SFR* 000000EBH   DATA     BYTE      CCAP1L
*SFR* 000000FCH   DATA     BYTE      CCAP2H
*SFR* 000000ECH   DATA     BYTE      CCAP2L
*SFR* 000000DAH   DATA     BYTE      CCAPM0
*SFR* 000000DBH   DATA     BYTE      CCAPM1
*SFR* 000000DCH   DATA     BYTE      CCAPM2
*SFR* 000000D8H.0 DATA     BIT       CCF0
*SFR* 000000D8H.1 DATA     BIT       CCF1
*SFR* 000000D8H.2 DATA     BIT       CCF2
*SFR* 000000D8H   DATA     BYTE      CCON
*SFR* 00000090H.1 DATA     BIT       CCP0
*SFR* 00000090H.0 DATA     BIT       CCP1
*SFR* 000000B0H.7 DATA     BIT       CCP2
*SFR* 000000D8H.7 DATA     BIT       CF
*SFR* 000000F9H   DATA     BYTE      CH
*SFR* 000000E9H   DATA     BYTE      CL
LX51 LINKER/LOCATER V4.66.93.0                                                        07/16/2024  15:06:14  PAGE 17


*SFR* 00000097H   DATA     BYTE      CLK_DIV
*SFR* 000000B0H.5 DATA     BIT       CLKOUT0
*SFR* 000000B0H.4 DATA     BIT       CLKOUT1
      01003C8BH   CODE     ---       CLR_Buf2
      01003CAAH   CODE     ---       CLR_Buf3
      01003CC9H   CODE     ---       CLR_Buf4
      00000014H   DATA     BYTE      cmd
*SFR* 000000D9H   DATA     BYTE      CMOD
*SFR* 000000E6H   DATA     BYTE      CMPCR1
*SFR* 000000E7H   DATA     BYTE      CMPCR2
*SFR* 000000D8H.6 DATA     BIT       CR
*SFR* 000000D0H.7 DATA     BIT       CY
      01003E90H   CODE     ---       dancing
      01003F1CH   CODE     ---       Delay10000ms
      01003EA0H   CODE     ---       Delay2500ms
      01003ECDH   CODE     ---       Delay3500ms
      01003EAFH   CODE     ---       Delay5000ms
      01003EBEH   CODE     ---       Delay6000ms
*SFR* 00000083H   DATA     BYTE      DPH
*SFR* 00000082H   DATA     BYTE      DPL
*SFR* 000000A8H.7 DATA     BIT       EA
*SFR* 000000A8H.5 DATA     BIT       EADC
*SFR* 000000A8H.6 DATA     BIT       ELVD
*SFR* 000000B0H.4 DATA     BIT       en
*SFR* 000000A8H.4 DATA     BIT       ES
*SFR* 000000A8H.1 DATA     BIT       ET0
*SFR* 000000A8H.3 DATA     BIT       ET1
*SFR* 000000A8H.0 DATA     BIT       EX0
*SFR* 000000A8H.2 DATA     BIT       EX1
*SFR* 000000D0H.5 DATA     BIT       F0
*SFR* 000000D0H.1 DATA     BIT       F1
      010028DFH   CODE     ---       human_computer
      00000020H   DATA     BYTE      i
*SFR* 000000C3H   DATA     BYTE      IAP_ADDRH
*SFR* 000000C4H   DATA     BYTE      IAP_ADDRL
*SFR* 000000C5H   DATA     BYTE      IAP_CMD
*SFR* 000000C7H   DATA     BYTE      IAP_CONTR
*SFR* 000000C2H   DATA     BYTE      IAP_DATA
*SFR* 000000C6H   DATA     BYTE      IAP_TRIG
*SFR* 000000A8H   DATA     BYTE      IE
*SFR* 00000088H.1 DATA     BIT       IE0
*SFR* 00000088H.3 DATA     BIT       IE1
*SFR* 000000AFH   DATA     BYTE      IE2
      01000003H   CODE     ---       Init_NRF24L01_MA
      01003F0AH   CODE     ---       InitSPI
*SFR* 000000B0H.2 DATA     BIT       INT0
*SFR* 000000B0H.3 DATA     BIT       INT1
      01003800H   CODE     ---       INT1_int
*SFR* 0000008FH   DATA     BYTE      INT_CLKO
*SFR* 000000B8H   DATA     BYTE      IP
*SFR* 000000B5H   DATA     BYTE      IP2
*SFR* 000000B7H   DATA     BYTE      IPH
*SFR* 000000B6H   DATA     BYTE      IPH2
*SFR* 000000B0H.3 DATA     BIT       IRQ
*SFR* 000000C3H   DATA     BYTE      ISP_ADDRH
*SFR* 000000C4H   DATA     BYTE      ISP_ADDRL
*SFR* 000000C5H   DATA     BYTE      ISP_CMD
*SFR* 000000C7H   DATA     BYTE      ISP_CONTR
*SFR* 000000C2H   DATA     BYTE      ISP_DATA
*SFR* 000000C6H   DATA     BYTE      ISP_TRIG
*SFR* 00000088H.0 DATA     BIT       IT0
*SFR* 00000088H.2 DATA     BIT       IT1
      00000021H   DATA     BYTE      j
*SFR* 00000080H.5 DATA     BIT       led_r
      00000022H   DATA     BYTE      m
LX51 LINKER/LOCATER V4.66.93.0                                                        07/16/2024  15:06:14  PAGE 18


      010032FBH   CODE     ---       main
      00000023H   DATA     BYTE      n
*SFR* 00000080H.4 DATA     BIT       OE1
*SFR* 00000080H.5 DATA     BIT       OE2
*SFR* 000000D0H.2 DATA     BIT       OV
*SFR* 000000D0H.0 DATA     BIT       P
*SFR* 00000080H   DATA     BYTE      P0
*SFR* 00000080H.0 DATA     BIT       P00
*SFR* 00000080H.1 DATA     BIT       P01
*SFR* 00000080H.2 DATA     BIT       P02
*SFR* 00000080H.3 DATA     BIT       P03
*SFR* 00000080H.4 DATA     BIT       P04
*SFR* 00000080H.5 DATA     BIT       P05
*SFR* 00000080H.6 DATA     BIT       P06
*SFR* 00000080H.7 DATA     BIT       P07
*SFR* 00000094H   DATA     BYTE      P0M0
*SFR* 00000093H   DATA     BYTE      P0M1
*SFR* 00000090H   DATA     BYTE      P1
*SFR* 00000090H.0 DATA     BIT       P10
*SFR* 00000090H.1 DATA     BIT       P11
*SFR* 00000090H.2 DATA     BIT       P12
*SFR* 00000090H.3 DATA     BIT       P13
*SFR* 00000090H.4 DATA     BIT       P14
*SFR* 00000090H.5 DATA     BIT       P15
*SFR* 00000090H.6 DATA     BIT       P16
*SFR* 00000090H.7 DATA     BIT       P17
*SFR* 0000009DH   DATA     BYTE      P1ASF
*SFR* 00000092H   DATA     BYTE      P1M0
*SFR* 00000091H   DATA     BYTE      P1M1
*SFR* 000000A0H   DATA     BYTE      P2
*SFR* 000000A0H.0 DATA     BIT       P20
*SFR* 000000A0H.1 DATA     BIT       P21
*SFR* 000000A0H.2 DATA     BIT       P22
*SFR* 000000A0H.3 DATA     BIT       P23
*SFR* 000000A0H.4 DATA     BIT       P24
*SFR* 000000A0H.5 DATA     BIT       P25
*SFR* 000000A0H.6 DATA     BIT       P26
*SFR* 000000A0H.7 DATA     BIT       P27
*SFR* 00000096H   DATA     BYTE      P2M0
*SFR* 00000095H   DATA     BYTE      P2M1
*SFR* 000000B0H   DATA     BYTE      P3
*SFR* 000000B0H.0 DATA     BIT       P30
*SFR* 000000B0H.1 DATA     BIT       P31
*SFR* 000000B0H.2 DATA     BIT       P32
*SFR* 000000B0H.3 DATA     BIT       P33
*SFR* 000000B0H.4 DATA     BIT       P34
*SFR* 000000B0H.5 DATA     BIT       P35
*SFR* 000000B0H.6 DATA     BIT       P36
*SFR* 000000B0H.7 DATA     BIT       P37
*SFR* 000000B2H   DATA     BYTE      P3M0
*SFR* 000000B1H   DATA     BYTE      P3M1
*SFR* 000000C0H   DATA     BYTE      P4
*SFR* 000000C0H.0 DATA     BIT       P40
*SFR* 000000C0H.1 DATA     BIT       P41
*SFR* 000000C0H.2 DATA     BIT       P42
*SFR* 000000C0H.3 DATA     BIT       P43
*SFR* 000000C0H.4 DATA     BIT       P44
*SFR* 000000C0H.5 DATA     BIT       P45
*SFR* 000000C0H.6 DATA     BIT       P46
*SFR* 000000C0H.7 DATA     BIT       P47
*SFR* 000000B4H   DATA     BYTE      P4M0
*SFR* 000000B3H   DATA     BYTE      P4M1
*SFR* 000000C8H   DATA     BYTE      P5
*SFR* 000000C8H.0 DATA     BIT       P50
*SFR* 000000C8H.1 DATA     BIT       P51
LX51 LINKER/LOCATER V4.66.93.0                                                        07/16/2024  15:06:14  PAGE 19


*SFR* 000000C8H.2 DATA     BIT       P52
*SFR* 000000C8H.3 DATA     BIT       P53
*SFR* 000000C8H.4 DATA     BIT       P54
*SFR* 000000C8H.5 DATA     BIT       P55
*SFR* 000000C8H.6 DATA     BIT       P56
*SFR* 000000C8H.7 DATA     BIT       P57
*SFR* 000000CAH   DATA     BYTE      P5M0
*SFR* 000000C9H   DATA     BYTE      P5M1
*SFR* 000000E8H   DATA     BYTE      P6
*SFR* 000000E8H.0 DATA     BIT       P60
*SFR* 000000E8H.1 DATA     BIT       P61
*SFR* 000000E8H.2 DATA     BIT       P62
*SFR* 000000E8H.3 DATA     BIT       P63
*SFR* 000000E8H.4 DATA     BIT       P64
*SFR* 000000E8H.5 DATA     BIT       P65
*SFR* 000000E8H.6 DATA     BIT       P66
*SFR* 000000E8H.7 DATA     BIT       P67
*SFR* 000000CCH   DATA     BYTE      P6M0
*SFR* 000000CBH   DATA     BYTE      P6M1
*SFR* 000000F8H   DATA     BYTE      P7
*SFR* 000000F8H.0 DATA     BIT       P70
*SFR* 000000F8H.1 DATA     BIT       P71
*SFR* 000000F8H.2 DATA     BIT       P72
*SFR* 000000F8H.3 DATA     BIT       P73
*SFR* 000000F8H.4 DATA     BIT       P74
*SFR* 000000F8H.5 DATA     BIT       P75
*SFR* 000000F8H.6 DATA     BIT       P76
*SFR* 000000F8H.7 DATA     BIT       P77
*SFR* 000000E2H   DATA     BYTE      P7M0
*SFR* 000000E1H   DATA     BYTE      P7M1
*SFR* 000000A2H   DATA     BYTE      P_SW1
*SFR* 000000BAH   DATA     BYTE      P_SW2
*SFR* 000000B8H.5 DATA     BIT       PADC
      01000096H   CODE     ---       part_one
      01000379H   CODE     ---       part_three
      01002475H   CODE     ---       part_two
*SFR* 000000F2H   DATA     BYTE      PCA_PWM0
*SFR* 000000F3H   DATA     BYTE      PCA_PWM1
*SFR* 000000F4H   DATA     BYTE      PCA_PWM2
*SFR* 00000087H   DATA     BYTE      PCON
*SFR* 00000097H   DATA     BYTE      PCON2
*SFR* 000000B8H.6 DATA     BIT       PLVD
*SFR* 000000B8H.7 DATA     BIT       PPCA
*SFR* 000000B8H.4 DATA     BIT       PS
*SFR* 000000D0H   DATA     BYTE      PSW
*SFR* 000000B8H.1 DATA     BIT       PT0
*SFR* 000000B8H.3 DATA     BIT       PT1
*SFR* 000000F1H   DATA     BYTE      PWMCFG
*SFR* 000000F5H   DATA     BYTE      PWMCR
*SFR* 000000F7H   DATA     BYTE      PWMFDCR
*SFR* 000000F6H   DATA     BYTE      PWMIF
*SFR* 000000B8H.0 DATA     BIT       PX0
*SFR* 000000B8H.2 DATA     BIT       PX1
*SFR* 00000098H.2 DATA     BIT       RB8
*SFR* 000000B0H.7 DATA     BIT       RD
      01002965H   CODE     ---       ready
      02000000H   XDATA    ---       Rec_Buf1
      02000004H   XDATA    ---       Rec_Buf2
      02000007H   XDATA    ---       Rec_Buf3
      02000015H   XDATA    ---       Rec_Buf4
*SFR* 00000098H.4 DATA     BIT       REN
      01003E3AH   CODE     ---       RF_ReceDat
*SFR* 00000098H.0 DATA     BIT       RI
*SFR* 000000D6H   DATA     BYTE      RL_T2H
*SFR* 000000D7H   DATA     BYTE      RL_T2L
LX51 LINKER/LOCATER V4.66.93.0                                                        07/16/2024  15:06:14  PAGE 20


*SFR* 000000D4H   DATA     BYTE      RL_T3H
*SFR* 000000D5H   DATA     BYTE      RL_T3L
*SFR* 000000D2H   DATA     BYTE      RL_T4H
*SFR* 000000D3H   DATA     BYTE      RL_T4L
*SFR* 0000008CH   DATA     BYTE      RL_TH0
*SFR* 0000008DH   DATA     BYTE      RL_TH1
*SFR* 0000008AH   DATA     BYTE      RL_TL0
*SFR* 0000008BH   DATA     BYTE      RL_TL1
*SFR* 000000D0H.3 DATA     BIT       RS0
*SFR* 000000D0H.4 DATA     BIT       RS1
      00000008H   DATA     ---       RX_ADDRESS
*SFR* 000000B0H.0 DATA     BIT       RXD
*SFR* 00000090H.0 DATA     BIT       RXD2
      00000012H   DATA     ---       RxPayload
*SFR* 0000009BH   DATA     BYTE      S2BUF
*SFR* 0000009AH   DATA     BYTE      S2CON
*SFR* 000000ADH   DATA     BYTE      S3BUF
*SFR* 000000ACH   DATA     BYTE      S3CON
*SFR* 00000085H   DATA     BYTE      S4BUF
*SFR* 00000084H   DATA     BYTE      S4CON
*SFR* 000000A9H   DATA     BYTE      SADDR
*SFR* 000000B9H   DATA     BYTE      SADEN
*SFR* 00000099H   DATA     BYTE      SBUF
*SFR* 00000098H   DATA     BYTE      SCON
      010037C3H   CODE     ---       Set_RxMode_MA
*SFR* 00000098H.7 DATA     BIT       SM0
*SFR* 00000098H.6 DATA     BIT       SM1
*SFR* 00000098H.5 DATA     BIT       SM2
*SFR* 00000081H   DATA     BYTE      SP
*SFR* 000000CEH   DATA     BYTE      SPCTL
*SFR* 000000CFH   DATA     BYTE      SPDAT
*SFR* 00000090H.2 DATA     BIT       SPI_CS
*SFR* 00000090H.4 DATA     BIT       SPI_MISO
*SFR* 000000A0H.2 DATA     BIT       SPI_MISO_2
*SFR* 000000C0H.1 DATA     BIT       SPI_MISO_3
*SFR* 00000090H.3 DATA     BIT       SPI_MOSI
*SFR* 000000A0H.3 DATA     BIT       SPI_MOSI_2
*SFR* 000000C0H.0 DATA     BIT       SPI_MOSI_3
*SFR* 00000090H.5 DATA     BIT       SPI_SCLK
*SFR* 000000A0H.1 DATA     BIT       SPI_SCLK_2
*SFR* 000000C0H.3 DATA     BIT       SPI_SCLK_3
*SFR* 00000090H.2 DATA     BIT       SPI_SS
*SFR* 000000A0H.4 DATA     BIT       SPI_SS_2
*SFR* 000000C8H.4 DATA     BIT       SPI_SS_3
*SFR* 000000CDH   DATA     BYTE      SPSTAT
      01000607H   CODE     ---       start
      01003DCDH   CODE     ---       start_repeatedly_Speech_Recognition
*SFR* 000000B0H.4 DATA     BIT       T0
*SFR* 000000B0H.5 DATA     BIT       T1
*SFR* 000000D6H   DATA     BYTE      T2H
*SFR* 000000D7H   DATA     BYTE      T2L
*SFR* 000000D4H   DATA     BYTE      T3H
*SFR* 000000D5H   DATA     BYTE      T3L
*SFR* 000000D1H   DATA     BYTE      T3T4M
*SFR* 000000D2H   DATA     BYTE      T4H
*SFR* 000000D3H   DATA     BYTE      T4L
*SFR* 000000D1H   DATA     BYTE      T4T3M
*SFR* 00000098H.3 DATA     BIT       TB8
*SFR* 00000088H   DATA     BYTE      TCON
*SFR* 00000088H.5 DATA     BIT       TF0
*SFR* 00000088H.7 DATA     BIT       TF1
*SFR* 0000008CH   DATA     BYTE      TH0
*SFR* 0000008DH   DATA     BYTE      TH1
*SFR* 000000D6H   DATA     BYTE      TH2
*SFR* 000000D4H   DATA     BYTE      TH3
LX51 LINKER/LOCATER V4.66.93.0                                                        07/16/2024  15:06:14  PAGE 21


*SFR* 000000D2H   DATA     BYTE      TH4
*SFR* 00000098H.1 DATA     BIT       TI
*SFR* 0000008AH   DATA     BYTE      TL0
*SFR* 0000008BH   DATA     BYTE      TL1
*SFR* 000000D7H   DATA     BYTE      TL2
*SFR* 000000D5H   DATA     BYTE      TL3
*SFR* 000000D3H   DATA     BYTE      TL4
*SFR* 00000089H   DATA     BYTE      TMOD
*SFR* 00000088H.4 DATA     BIT       TR0
*SFR* 00000088H.6 DATA     BIT       TR1
      0000000DH   DATA     ---       TX_ADDRESS
*SFR* 000000B0H.1 DATA     BIT       TXD
*SFR* 00000090H.1 DATA     BIT       TXD2
      00000013H   DATA     ---       TxPayload
      01003786H   CODE     ---       Uart1
      01003749H   CODE     ---       Uart1234_Init
      01000046H   CODE     ---       Uart2
      01003704H   CODE     ---       Uart3
      01003396H   CODE     ---       Uart4
      01003E20H   CODE     ---       wagh
*SFR* 0000008FH   DATA     BYTE      WAKE_CLKO
*SFR* 000000C1H   DATA     BYTE      WDT_CONTR
*SFR* 000000ABH   DATA     BYTE      WKTCH
*SFR* 000000AAH   DATA     BYTE      WKTCL
*SFR* 000000B0H.6 DATA     BIT       WR
      01003E69H   CODE     ---       zhongduanyi



SYMBOL TABLE OF MODULE:  .\Objects\XPU (?C_STARTUP)

      VALUE       REP       CLASS    TYPE      SYMBOL NAME
      ====================================================
      ---         MODULE    ---      ---       ?C_STARTUP
      01000000H   PUBLIC    CODE     ---       ?C_STARTUP
      000000E0H   SYMBOL    DATA     ---       ACC
      000000F0H   SYMBOL    DATA     ---       B
      00000083H   SYMBOL    DATA     ---       DPH
      00000082H   SYMBOL    DATA     ---       DPL
      00000000H   SYMBOL    NUMBER   ---       IBPSTACK
      00000100H   SYMBOL    NUMBER   ---       IBPSTACKTOP
      00000080H   SYMBOL    NUMBER   ---       IDATALEN
      01002856H   SYMBOL    CODE     ---       IDATALOOP
      00000000H   SYMBOL    NUMBER   ---       PBPSTACK
      00000100H   SYMBOL    NUMBER   ---       PBPSTACKTOP
      00000000H   SYMBOL    NUMBER   ---       PDATALEN
      00000000H   SYMBOL    NUMBER   ---       PDATASTART
      00000000H   SYMBOL    NUMBER   ---       PPAGE
      00000000H   SYMBOL    NUMBER   ---       PPAGEENABLE
      000000A0H   SYMBOL    DATA     ---       PPAGE_SFR
      00000081H   SYMBOL    DATA     ---       SP
      01002853H   SYMBOL    CODE     ---       STARTUP1
      00000000H   SYMBOL    NUMBER   ---       XBPSTACK
      00000000H   SYMBOL    NUMBER   ---       XBPSTACKTOP
      00000000H   SYMBOL    NUMBER   ---       XDATALEN
      00000000H   SYMBOL    NUMBER   ---       XDATASTART
      01000000H   LINE      CODE     ---       #126
      01002853H   LINE      CODE     ---       #133
      01002855H   LINE      CODE     ---       #134
      01002856H   LINE      CODE     ---       #135
      01002857H   LINE      CODE     ---       #136
      01002859H   LINE      CODE     ---       #185
      0100285CH   LINE      CODE     ---       #196

      ---         MODULE    ---      ---       MAIN
LX51 LINKER/LOCATER V4.66.93.0                                                        07/16/2024  15:06:14  PAGE 22


      010032FBH   PUBLIC    CODE     ---       main
      000000D8H.2 SFRSYM    DATA     BIT       CCF2
      00000092H   SFRSYM    DATA     BYTE      P1M0
      00000093H   SFRSYM    DATA     BYTE      P0M1
      000000E0H.7 SFRSYM    DATA     BIT       ACC7
      00000096H   SFRSYM    DATA     BYTE      P2M0
      00000091H   SFRSYM    DATA     BYTE      P1M1
      00000080H   SFRSYM    DATA     BYTE      P0
      000000B2H   SFRSYM    DATA     BYTE      P3M0
      00000095H   SFRSYM    DATA     BYTE      P2M1
      00000090H   SFRSYM    DATA     BYTE      P1
      000000B4H   SFRSYM    DATA     BYTE      P4M0
      000000B1H   SFRSYM    DATA     BYTE      P3M1
      000000A0H   SFRSYM    DATA     BYTE      P2
      000000ABH   SFRSYM    DATA     BYTE      WKTCH
      000000CAH   SFRSYM    DATA     BYTE      P5M0
      000000B3H   SFRSYM    DATA     BYTE      P4M1
      000000B0H   SFRSYM    DATA     BYTE      P3
      000000B0H.4 SFRSYM    DATA     BIT       T0
      000000CCH   SFRSYM    DATA     BYTE      P6M0
      000000C9H   SFRSYM    DATA     BYTE      P5M1
      000000C0H   SFRSYM    DATA     BYTE      P4
      000000D0H.6 SFRSYM    DATA     BIT       AC
      000000B0H.5 SFRSYM    DATA     BIT       CLKOUT0
      000000B0H.5 SFRSYM    DATA     BIT       T1
      000000C6H   SFRSYM    DATA     BYTE      ISP_TRIG
      000000F6H   SFRSYM    DATA     BYTE      PWMIF
      000000E2H   SFRSYM    DATA     BYTE      P7M0
      000000CBH   SFRSYM    DATA     BYTE      P6M1
      000000C8H   SFRSYM    DATA     BYTE      P5
      000000B0H.4 SFRSYM    DATA     BIT       CLKOUT1
      000000A0H.4 SFRSYM    DATA     BIT       SPI_SS_2
      000000A8H.7 SFRSYM    DATA     BIT       EA
      000000E1H   SFRSYM    DATA     BYTE      P7M1
      000000E8H   SFRSYM    DATA     BYTE      P6
      000000C8H.4 SFRSYM    DATA     BIT       SPI_SS_3
      00000090H.4 SFRSYM    DATA     BIT       SPI_MISO
      00000090H.3 SFRSYM    DATA     BIT       SPI_MOSI
      00000090H.1 SFRSYM    DATA     BIT       CCP0
      000000AAH   SFRSYM    DATA     BYTE      WKTCL
      000000F8H   SFRSYM    DATA     BYTE      P7
      00000090H.0 SFRSYM    DATA     BIT       CCP1
      000000CEH   SFRSYM    DATA     BYTE      SPCTL
      000000B0H.7 SFRSYM    DATA     BIT       CCP2
      000000D8H.7 SFRSYM    DATA     BIT       CF
      000000F5H   SFRSYM    DATA     BYTE      PWMCR
      000000F9H   SFRSYM    DATA     BYTE      CH
      000000A2H   SFRSYM    DATA     BYTE      P_SW1
      000000BAH   SFRSYM    DATA     BYTE      P_SW2
      000000A0H.1 SFRSYM    DATA     BIT       SPI_SCLK_2
      000000A8H.5 SFRSYM    DATA     BIT       EADC
      000000A8H   SFRSYM    DATA     BYTE      IE
      000000C0H.3 SFRSYM    DATA     BIT       SPI_SCLK_3
      000000E9H   SFRSYM    DATA     BYTE      CL
      000000C5H   SFRSYM    DATA     BYTE      IAP_CMD
      000000FAH   SFRSYM    DATA     BYTE      CCAP0H
      000000FBH   SFRSYM    DATA     BYTE      CCAP1H
      000000FCH   SFRSYM    DATA     BYTE      CCAP2H
      000000B6H   SFRSYM    DATA     BYTE      IPH2
      000000BDH   SFRSYM    DATA     BYTE      ADC_RES
      000000EAH   SFRSYM    DATA     BYTE      CCAP0L
      000000D8H.6 SFRSYM    DATA     BIT       CR
      000000B0H.7 SFRSYM    DATA     BIT       RD
      000000F7H   SFRSYM    DATA     BYTE      PWMFDCR
      000000EBH   SFRSYM    DATA     BYTE      CCAP1L
LX51 LINKER/LOCATER V4.66.93.0                                                        07/16/2024  15:06:14  PAGE 23


      000000DAH   SFRSYM    DATA     BYTE      CCAPM0
      000000ECH   SFRSYM    DATA     BYTE      CCAP2L
      000000DBH   SFRSYM    DATA     BYTE      CCAPM1
      000000DCH   SFRSYM    DATA     BYTE      CCAPM2
      000000A8H.4 SFRSYM    DATA     BIT       ES
      000000A0H.2 SFRSYM    DATA     BIT       SPI_MISO_2
      000000A0H.3 SFRSYM    DATA     BIT       SPI_MOSI_2
      000000B8H.5 SFRSYM    DATA     BIT       PADC
      000000B8H   SFRSYM    DATA     BYTE      IP
      000000C0H.1 SFRSYM    DATA     BIT       SPI_MISO_3
      000000C0H.0 SFRSYM    DATA     BIT       SPI_MOSI_3
      00000098H.0 SFRSYM    DATA     BIT       RI
      000000B0H.2 SFRSYM    DATA     BIT       INT0
      000000D0H.7 SFRSYM    DATA     BIT       CY
      000000B0H.3 SFRSYM    DATA     BIT       INT1
      00000098H.1 SFRSYM    DATA     BIT       TI
      00000097H   SFRSYM    DATA     BYTE      CLK_DIV
      000000C3H   SFRSYM    DATA     BYTE      IAP_ADDRH
      00000090H.0 SFRSYM    DATA     BIT       RXD2
      000000C5H   SFRSYM    DATA     BYTE      ISP_CMD
      00000090H.1 SFRSYM    DATA     BIT       TXD2
      000000B8H.4 SFRSYM    DATA     BIT       PS
      00000081H   SFRSYM    DATA     BYTE      SP
      000000D9H   SFRSYM    DATA     BYTE      CMOD
      000000D8H   SFRSYM    DATA     BYTE      CCON
      000000C4H   SFRSYM    DATA     BYTE      IAP_ADDRL
      000000B8H.7 SFRSYM    DATA     BIT       PPCA
      000000D0H.2 SFRSYM    DATA     BIT       OV
      000000E6H   SFRSYM    DATA     BYTE      CMPCR1
      000000B0H.6 SFRSYM    DATA     BIT       WR
      000000E7H   SFRSYM    DATA     BYTE      CMPCR2
      000000A8H.6 SFRSYM    DATA     BIT       ELVD
      00000080H.0 SFRSYM    DATA     BIT       P00
      000000BCH   SFRSYM    DATA     BYTE      ADC_CONTR
      00000099H   SFRSYM    DATA     BYTE      SBUF
      00000087H   SFRSYM    DATA     BYTE      PCON
      00000090H.0 SFRSYM    DATA     BIT       P10
      00000080H.1 SFRSYM    DATA     BIT       P01
      000000C3H   SFRSYM    DATA     BYTE      ISP_ADDRH
      000000A0H.0 SFRSYM    DATA     BIT       P20
      00000090H.1 SFRSYM    DATA     BIT       P11
      00000080H.2 SFRSYM    DATA     BIT       P02
      000000B0H.0 SFRSYM    DATA     BIT       P30
      000000A0H.1 SFRSYM    DATA     BIT       P21
      00000090H.2 SFRSYM    DATA     BIT       P12
      00000080H.3 SFRSYM    DATA     BIT       P03
      00000098H   SFRSYM    DATA     BYTE      SCON
      0000008FH   SFRSYM    DATA     BYTE      WAKE_CLKO
      000000C0H.0 SFRSYM    DATA     BIT       P40
      000000B0H.1 SFRSYM    DATA     BIT       P31
      000000A0H.2 SFRSYM    DATA     BIT       P22
      00000090H.3 SFRSYM    DATA     BIT       P13
      00000080H.4 SFRSYM    DATA     BIT       P04
      00000089H   SFRSYM    DATA     BYTE      TMOD
      00000088H   SFRSYM    DATA     BYTE      TCON
      000000C8H.0 SFRSYM    DATA     BIT       P50
      000000C0H.1 SFRSYM    DATA     BIT       P41
      000000B0H.2 SFRSYM    DATA     BIT       P32
      000000A0H.3 SFRSYM    DATA     BIT       P23
      00000090H.4 SFRSYM    DATA     BIT       P14
      00000080H.5 SFRSYM    DATA     BIT       P05
      000000C4H   SFRSYM    DATA     BYTE      ISP_ADDRL
      000000E8H.0 SFRSYM    DATA     BIT       P60
      000000C8H.1 SFRSYM    DATA     BIT       P51
      000000C0H.2 SFRSYM    DATA     BIT       P42
LX51 LINKER/LOCATER V4.66.93.0                                                        07/16/2024  15:06:14  PAGE 24


      000000B0H.3 SFRSYM    DATA     BIT       P33
      000000A0H.4 SFRSYM    DATA     BIT       P24
      00000090H.5 SFRSYM    DATA     BIT       P15
      00000080H.6 SFRSYM    DATA     BIT       P06
      000000B8H.6 SFRSYM    DATA     BIT       PLVD
      000000F8H.0 SFRSYM    DATA     BIT       P70
      000000E8H.1 SFRSYM    DATA     BIT       P61
      000000C8H.2 SFRSYM    DATA     BIT       P52
      000000C0H.3 SFRSYM    DATA     BIT       P43
      000000B0H.4 SFRSYM    DATA     BIT       P34
      000000A0H.5 SFRSYM    DATA     BIT       P25
      00000090H.6 SFRSYM    DATA     BIT       P16
      00000080H.7 SFRSYM    DATA     BIT       P07
      000000F8H.1 SFRSYM    DATA     BIT       P71
      000000E8H.2 SFRSYM    DATA     BIT       P62
      000000C8H.3 SFRSYM    DATA     BIT       P53
      000000C0H.4 SFRSYM    DATA     BIT       P44
      000000B0H.5 SFRSYM    DATA     BIT       P35
      000000A0H.6 SFRSYM    DATA     BIT       P26
      00000090H.7 SFRSYM    DATA     BIT       P17
      000000F8H.2 SFRSYM    DATA     BIT       P72
      000000E8H.3 SFRSYM    DATA     BIT       P63
      000000C8H.4 SFRSYM    DATA     BIT       P54
      000000C0H.5 SFRSYM    DATA     BIT       P45
      000000B0H.6 SFRSYM    DATA     BIT       P36
      000000A0H.7 SFRSYM    DATA     BIT       P27
      000000F8H.3 SFRSYM    DATA     BIT       P73
      000000E8H.4 SFRSYM    DATA     BIT       P64
      000000C8H.5 SFRSYM    DATA     BIT       P55
      000000C0H.6 SFRSYM    DATA     BIT       P46
      000000B0H.7 SFRSYM    DATA     BIT       P37
      000000F8H.4 SFRSYM    DATA     BIT       P74
      000000E8H.5 SFRSYM    DATA     BIT       P65
      000000C8H.6 SFRSYM    DATA     BIT       P56
      000000C0H.7 SFRSYM    DATA     BIT       P47
      000000F8H.5 SFRSYM    DATA     BIT       P75
      000000E8H.6 SFRSYM    DATA     BIT       P66
      000000C8H.7 SFRSYM    DATA     BIT       P57
      000000F8H.6 SFRSYM    DATA     BIT       P76
      000000E8H.7 SFRSYM    DATA     BIT       P67
      00000088H.1 SFRSYM    DATA     BIT       IE0
      000000A1H   SFRSYM    DATA     BYTE      BUS_SPEED
      000000F8H.7 SFRSYM    DATA     BIT       P77
      00000088H.3 SFRSYM    DATA     BIT       IE1
      000000AFH   SFRSYM    DATA     BYTE      IE2
      0000008EH   SFRSYM    DATA     BYTE      AUXR
      000000F0H   SFRSYM    DATA     BYTE      B
      000000C7H   SFRSYM    DATA     BYTE      IAP_CONTR
      000000F1H   SFRSYM    DATA     BYTE      PWMCFG
      000000E0H   SFRSYM    DATA     BYTE      ACC
      000000A8H.1 SFRSYM    DATA     BIT       ET0
      00000088H.5 SFRSYM    DATA     BIT       TF0
      000000A8H.3 SFRSYM    DATA     BIT       ET1
      0000008CH   SFRSYM    DATA     BYTE      RL_TH0
      00000088H.7 SFRSYM    DATA     BIT       TF1
      000000B5H   SFRSYM    DATA     BYTE      IP2
      0000008DH   SFRSYM    DATA     BYTE      RL_TH1
      00000098H.2 SFRSYM    DATA     BIT       RB8
      0000008CH   SFRSYM    DATA     BYTE      TH0
      000000D6H   SFRSYM    DATA     BYTE      RL_T2H
      0000008DH   SFRSYM    DATA     BYTE      TH1
      00000088H.0 SFRSYM    DATA     BIT       IT0
      000000A8H.0 SFRSYM    DATA     BIT       EX0
      000000D4H   SFRSYM    DATA     BYTE      RL_T3H
      000000D6H   SFRSYM    DATA     BYTE      TH2
LX51 LINKER/LOCATER V4.66.93.0                                                        07/16/2024  15:06:14  PAGE 25


      00000098H.3 SFRSYM    DATA     BIT       TB8
      000000D6H   SFRSYM    DATA     BYTE      T2H
      00000088H.2 SFRSYM    DATA     BIT       IT1
      000000A8H.2 SFRSYM    DATA     BIT       EX1
      000000D2H   SFRSYM    DATA     BYTE      RL_T4H
      000000D4H   SFRSYM    DATA     BYTE      TH3
      0000008AH   SFRSYM    DATA     BYTE      RL_TL0
      000000D4H   SFRSYM    DATA     BYTE      T3H
      000000D0H.0 SFRSYM    DATA     BIT       P
      000000D2H   SFRSYM    DATA     BYTE      TH4
      0000008BH   SFRSYM    DATA     BYTE      RL_TL1
      00000098H.7 SFRSYM    DATA     BIT       SM0
      000000D2H   SFRSYM    DATA     BYTE      T4H
      0000008AH   SFRSYM    DATA     BYTE      TL0
      000000D7H   SFRSYM    DATA     BYTE      RL_T2L
      00000098H.6 SFRSYM    DATA     BIT       SM1
      0000008BH   SFRSYM    DATA     BYTE      TL1
      000000D5H   SFRSYM    DATA     BYTE      RL_T3L
      000000D7H   SFRSYM    DATA     BYTE      TL2
      00000098H.5 SFRSYM    DATA     BIT       SM2
      000000D7H   SFRSYM    DATA     BYTE      T2L
      000000D3H   SFRSYM    DATA     BYTE      RL_T4L
      000000D5H   SFRSYM    DATA     BYTE      TL3
      000000D5H   SFRSYM    DATA     BYTE      T3L
      000000D3H   SFRSYM    DATA     BYTE      TL4
      000000D3H   SFRSYM    DATA     BYTE      T4L
      000000B8H.1 SFRSYM    DATA     BIT       PT0
      000000C7H   SFRSYM    DATA     BYTE      ISP_CONTR
      000000B8H.3 SFRSYM    DATA     BIT       PT1
      000000D0H.3 SFRSYM    DATA     BIT       RS0
      000000C2H   SFRSYM    DATA     BYTE      IAP_DATA
      00000088H.4 SFRSYM    DATA     BIT       TR0
      000000D0H.4 SFRSYM    DATA     BIT       RS1
      00000088H.6 SFRSYM    DATA     BIT       TR1
      000000C1H   SFRSYM    DATA     BYTE      WDT_CONTR
      000000B8H.0 SFRSYM    DATA     BIT       PX0
      000000B8H.2 SFRSYM    DATA     BIT       PX1
      000000F2H   SFRSYM    DATA     BYTE      PCA_PWM0
      000000F3H   SFRSYM    DATA     BYTE      PCA_PWM1
      000000F4H   SFRSYM    DATA     BYTE      PCA_PWM2
      0000009DH   SFRSYM    DATA     BYTE      P1ASF
      00000083H   SFRSYM    DATA     BYTE      DPH
      000000D1H   SFRSYM    DATA     BYTE      T3T4M
      000000D1H   SFRSYM    DATA     BYTE      T4T3M
      000000BEH   SFRSYM    DATA     BYTE      ADC_RESL
      00000082H   SFRSYM    DATA     BYTE      DPL
      000000B7H   SFRSYM    DATA     BYTE      IPH
      000000CDH   SFRSYM    DATA     BYTE      SPSTAT
      0000009BH   SFRSYM    DATA     BYTE      S2BUF
      00000097H   SFRSYM    DATA     BYTE      PCON2
      000000ADH   SFRSYM    DATA     BYTE      S3BUF
      00000085H   SFRSYM    DATA     BYTE      S4BUF
      00000098H.4 SFRSYM    DATA     BIT       REN
      0000009AH   SFRSYM    DATA     BYTE      S2CON
      000000ACH   SFRSYM    DATA     BYTE      S3CON
      000000C2H   SFRSYM    DATA     BYTE      ISP_DATA
      00000084H   SFRSYM    DATA     BYTE      S4CON
      000000B9H   SFRSYM    DATA     BYTE      SADEN
      000000B0H.0 SFRSYM    DATA     BIT       RXD
      000000A9H   SFRSYM    DATA     BYTE      SADDR
      000000B0H.1 SFRSYM    DATA     BIT       TXD
      000000F0H.0 SFRSYM    DATA     BIT       B0
      000000C6H   SFRSYM    DATA     BYTE      IAP_TRIG
      000000A2H   SFRSYM    DATA     BYTE      AUXR1
      000000F0H.1 SFRSYM    DATA     BIT       B1
LX51 LINKER/LOCATER V4.66.93.0                                                        07/16/2024  15:06:14  PAGE 26


      00000090H.2 SFRSYM    DATA     BIT       SPI_SS
      0000008FH   SFRSYM    DATA     BYTE      AUXR2
      000000F0H.2 SFRSYM    DATA     BIT       B2
      000000F0H.3 SFRSYM    DATA     BIT       B3
      000000D0H.5 SFRSYM    DATA     BIT       F0
      000000F0H.4 SFRSYM    DATA     BIT       B4
      0000008FH   SFRSYM    DATA     BYTE      INT_CLKO
      000000D0H.1 SFRSYM    DATA     BIT       F1
      000000F0H.5 SFRSYM    DATA     BIT       B5
      000000F0H.6 SFRSYM    DATA     BIT       B6
      000000E0H.0 SFRSYM    DATA     BIT       ACC0
      000000F0H.7 SFRSYM    DATA     BIT       B7
      000000E0H.1 SFRSYM    DATA     BIT       ACC1
      000000E0H.2 SFRSYM    DATA     BIT       ACC2
      000000D0H   SFRSYM    DATA     BYTE      PSW
      000000E0H.3 SFRSYM    DATA     BIT       ACC3
      00000090H.5 SFRSYM    DATA     BIT       SPI_SCLK
      000000E0H.4 SFRSYM    DATA     BIT       ACC4
      000000D8H.0 SFRSYM    DATA     BIT       CCF0
      000000E0H.5 SFRSYM    DATA     BIT       ACC5
      000000D8H.1 SFRSYM    DATA     BIT       CCF1
      000000CFH   SFRSYM    DATA     BYTE      SPDAT
      00000094H   SFRSYM    DATA     BYTE      P0M0
      000000E0H.6 SFRSYM    DATA     BIT       ACC6

      010032FBH   BLOCK     CODE     ---       LVL=0
      010032FBH   LINE      CODE     ---       #8
      010032FBH   LINE      CODE     ---       #9
      010032FBH   LINE      CODE     ---       #10
      010032FEH   LINE      CODE     ---       #11
      01003301H   LINE      CODE     ---       #12
      01003304H   LINE      CODE     ---       #13
      01003307H   LINE      CODE     ---       #14
      0100330AH   LINE      CODE     ---       #15
      0100330DH   LINE      CODE     ---       #16
      01003310H   LINE      CODE     ---       #17
      01003310H   LINE      CODE     ---       #18
      01003310H   LINE      CODE     ---       #19
      0100331CH   LINE      CODE     ---       #20
      0100331CH   LINE      CODE     ---       #21
      01003324H   LINE      CODE     ---       #22
      0100332FH   LINE      CODE     ---       #23
      0100333BH   LINE      CODE     ---       #24
      0100333DH   LINE      CODE     ---       #25
      01003340H   LINE      CODE     ---       #26
      01003340H   LINE      CODE     ---       #27
      01003347H   LINE      CODE     ---       #28
      ---         BLOCKEND  ---      ---       LVL=0

      ---         MODULE    ---      ---       UART
      00000023H   PUBLIC    DATA     BYTE      n
      00000022H   PUBLIC    DATA     BYTE      m
      00000021H   PUBLIC    DATA     BYTE      j
      00000020H   PUBLIC    DATA     BYTE      i
      02000015H   PUBLIC    XDATA    ---       Rec_Buf4
      02000007H   PUBLIC    XDATA    ---       Rec_Buf3
      02000004H   PUBLIC    XDATA    ---       Rec_Buf2
      02000000H   PUBLIC    XDATA    ---       Rec_Buf1
      01003396H   PUBLIC    CODE     ---       Uart4
      01003CC9H   PUBLIC    CODE     ---       CLR_Buf4
      01003AB4H   PUBLIC    CODE     ---       _SendStringByUart4
      01003EFFH   PUBLIC    CODE     ---       _SendDataByUart4
      01003704H   PUBLIC    CODE     ---       Uart3
      01003CAAH   PUBLIC    CODE     ---       CLR_Buf3
      01003A89H   PUBLIC    CODE     ---       _SendStringByUart3
LX51 LINKER/LOCATER V4.66.93.0                                                        07/16/2024  15:06:14  PAGE 27


      01003EF4H   PUBLIC    CODE     ---       _SendDataByUart3
      01000046H   PUBLIC    CODE     ---       Uart2
      01003C8BH   PUBLIC    CODE     ---       CLR_Buf2
      01003EE9H   PUBLIC    CODE     ---       _SendDataByUart2
      01003786H   PUBLIC    CODE     ---       Uart1
      01003C02H   PUBLIC    CODE     ---       _SendStringByUart1
      01003F14H   PUBLIC    CODE     ---       _SendDataByUart1
      01003749H   PUBLIC    CODE     ---       Uart1234_Init
      01003C6BH   PUBLIC    CODE     ---       _delay_ms
      01003E20H   PUBLIC    CODE     ---       wagh
      000000D8H.2 SFRSYM    DATA     BIT       CCF2
      00000092H   SFRSYM    DATA     BYTE      P1M0
      00000093H   SFRSYM    DATA     BYTE      P0M1
      000000E0H.7 SFRSYM    DATA     BIT       ACC7
      00000096H   SFRSYM    DATA     BYTE      P2M0
      00000091H   SFRSYM    DATA     BYTE      P1M1
      00000080H   SFRSYM    DATA     BYTE      P0
      000000B2H   SFRSYM    DATA     BYTE      P3M0
      00000095H   SFRSYM    DATA     BYTE      P2M1
      00000090H   SFRSYM    DATA     BYTE      P1
      000000B4H   SFRSYM    DATA     BYTE      P4M0
      000000B1H   SFRSYM    DATA     BYTE      P3M1
      000000A0H   SFRSYM    DATA     BYTE      P2
      000000ABH   SFRSYM    DATA     BYTE      WKTCH
      000000CAH   SFRSYM    DATA     BYTE      P5M0
      000000B3H   SFRSYM    DATA     BYTE      P4M1
      000000B0H   SFRSYM    DATA     BYTE      P3
      000000B0H.4 SFRSYM    DATA     BIT       T0
      000000CCH   SFRSYM    DATA     BYTE      P6M0
      000000C9H   SFRSYM    DATA     BYTE      P5M1
      000000C0H   SFRSYM    DATA     BYTE      P4
      000000D0H.6 SFRSYM    DATA     BIT       AC
      000000B0H.5 SFRSYM    DATA     BIT       CLKOUT0
      000000B0H.5 SFRSYM    DATA     BIT       T1
      000000C6H   SFRSYM    DATA     BYTE      ISP_TRIG
      000000F6H   SFRSYM    DATA     BYTE      PWMIF
      000000E2H   SFRSYM    DATA     BYTE      P7M0
      000000CBH   SFRSYM    DATA     BYTE      P6M1
      000000C8H   SFRSYM    DATA     BYTE      P5
      000000B0H.4 SFRSYM    DATA     BIT       CLKOUT1
      000000A0H.4 SFRSYM    DATA     BIT       SPI_SS_2
      000000A8H.7 SFRSYM    DATA     BIT       EA
      000000E1H   SFRSYM    DATA     BYTE      P7M1
      000000E8H   SFRSYM    DATA     BYTE      P6
      000000C8H.4 SFRSYM    DATA     BIT       SPI_SS_3
      00000090H.4 SFRSYM    DATA     BIT       SPI_MISO
      00000090H.3 SFRSYM    DATA     BIT       SPI_MOSI
      00000090H.1 SFRSYM    DATA     BIT       CCP0
      000000AAH   SFRSYM    DATA     BYTE      WKTCL
      000000F8H   SFRSYM    DATA     BYTE      P7
      00000090H.0 SFRSYM    DATA     BIT       CCP1
      000000CEH   SFRSYM    DATA     BYTE      SPCTL
      000000B0H.7 SFRSYM    DATA     BIT       CCP2
      000000D8H.7 SFRSYM    DATA     BIT       CF
      000000F5H   SFRSYM    DATA     BYTE      PWMCR
      000000F9H   SFRSYM    DATA     BYTE      CH
      000000A2H   SFRSYM    DATA     BYTE      P_SW1
      000000BAH   SFRSYM    DATA     BYTE      P_SW2
      000000A0H.1 SFRSYM    DATA     BIT       SPI_SCLK_2
      000000A8H.5 SFRSYM    DATA     BIT       EADC
      000000A8H   SFRSYM    DATA     BYTE      IE
      000000C0H.3 SFRSYM    DATA     BIT       SPI_SCLK_3
      000000E9H   SFRSYM    DATA     BYTE      CL
      000000C5H   SFRSYM    DATA     BYTE      IAP_CMD
      000000FAH   SFRSYM    DATA     BYTE      CCAP0H
LX51 LINKER/LOCATER V4.66.93.0                                                        07/16/2024  15:06:14  PAGE 28


      000000FBH   SFRSYM    DATA     BYTE      CCAP1H
      000000FCH   SFRSYM    DATA     BYTE      CCAP2H
      000000B6H   SFRSYM    DATA     BYTE      IPH2
      000000BDH   SFRSYM    DATA     BYTE      ADC_RES
      000000EAH   SFRSYM    DATA     BYTE      CCAP0L
      000000D8H.6 SFRSYM    DATA     BIT       CR
      000000B0H.7 SFRSYM    DATA     BIT       RD
      000000F7H   SFRSYM    DATA     BYTE      PWMFDCR
      000000EBH   SFRSYM    DATA     BYTE      CCAP1L
      000000DAH   SFRSYM    DATA     BYTE      CCAPM0
      000000ECH   SFRSYM    DATA     BYTE      CCAP2L
      000000DBH   SFRSYM    DATA     BYTE      CCAPM1
      000000DCH   SFRSYM    DATA     BYTE      CCAPM2
      000000A8H.4 SFRSYM    DATA     BIT       ES
      000000A0H.2 SFRSYM    DATA     BIT       SPI_MISO_2
      000000A0H.3 SFRSYM    DATA     BIT       SPI_MOSI_2
      000000B8H.5 SFRSYM    DATA     BIT       PADC
      000000B8H   SFRSYM    DATA     BYTE      IP
      000000C0H.1 SFRSYM    DATA     BIT       SPI_MISO_3
      000000C0H.0 SFRSYM    DATA     BIT       SPI_MOSI_3
      00000098H.0 SFRSYM    DATA     BIT       RI
      000000B0H.2 SFRSYM    DATA     BIT       INT0
      000000D0H.7 SFRSYM    DATA     BIT       CY
      000000B0H.3 SFRSYM    DATA     BIT       INT1
      00000098H.1 SFRSYM    DATA     BIT       TI
      00000097H   SFRSYM    DATA     BYTE      CLK_DIV
      000000C3H   SFRSYM    DATA     BYTE      IAP_ADDRH
      00000090H.0 SFRSYM    DATA     BIT       RXD2
      000000C5H   SFRSYM    DATA     BYTE      ISP_CMD
      00000090H.1 SFRSYM    DATA     BIT       TXD2
      000000B8H.4 SFRSYM    DATA     BIT       PS
      00000081H   SFRSYM    DATA     BYTE      SP
      000000D9H   SFRSYM    DATA     BYTE      CMOD
      000000D8H   SFRSYM    DATA     BYTE      CCON
      000000C4H   SFRSYM    DATA     BYTE      IAP_ADDRL
      000000B8H.7 SFRSYM    DATA     BIT       PPCA
      000000D0H.2 SFRSYM    DATA     BIT       OV
      000000E6H   SFRSYM    DATA     BYTE      CMPCR1
      000000B0H.6 SFRSYM    DATA     BIT       WR
      000000E7H   SFRSYM    DATA     BYTE      CMPCR2
      000000A8H.6 SFRSYM    DATA     BIT       ELVD
      00000080H.0 SFRSYM    DATA     BIT       P00
      000000BCH   SFRSYM    DATA     BYTE      ADC_CONTR
      00000099H   SFRSYM    DATA     BYTE      SBUF
      00000087H   SFRSYM    DATA     BYTE      PCON
      00000090H.0 SFRSYM    DATA     BIT       P10
      00000080H.1 SFRSYM    DATA     BIT       P01
      000000C3H   SFRSYM    DATA     BYTE      ISP_ADDRH
      000000A0H.0 SFRSYM    DATA     BIT       P20
      00000090H.1 SFRSYM    DATA     BIT       P11
      00000080H.2 SFRSYM    DATA     BIT       P02
      000000B0H.0 SFRSYM    DATA     BIT       P30
      000000A0H.1 SFRSYM    DATA     BIT       P21
      00000090H.2 SFRSYM    DATA     BIT       P12
      00000080H.3 SFRSYM    DATA     BIT       P03
      00000098H   SFRSYM    DATA     BYTE      SCON
      0000008FH   SFRSYM    DATA     BYTE      WAKE_CLKO
      000000C0H.0 SFRSYM    DATA     BIT       P40
      000000B0H.1 SFRSYM    DATA     BIT       P31
      000000A0H.2 SFRSYM    DATA     BIT       P22
      00000090H.3 SFRSYM    DATA     BIT       P13
      00000080H.4 SFRSYM    DATA     BIT       P04
      00000089H   SFRSYM    DATA     BYTE      TMOD
      00000088H   SFRSYM    DATA     BYTE      TCON
      000000C8H.0 SFRSYM    DATA     BIT       P50
LX51 LINKER/LOCATER V4.66.93.0                                                        07/16/2024  15:06:14  PAGE 29


      000000C0H.1 SFRSYM    DATA     BIT       P41
      000000B0H.2 SFRSYM    DATA     BIT       P32
      000000A0H.3 SFRSYM    DATA     BIT       P23
      00000090H.4 SFRSYM    DATA     BIT       P14
      00000080H.5 SFRSYM    DATA     BIT       P05
      000000C4H   SFRSYM    DATA     BYTE      ISP_ADDRL
      000000E8H.0 SFRSYM    DATA     BIT       P60
      000000C8H.1 SFRSYM    DATA     BIT       P51
      000000C0H.2 SFRSYM    DATA     BIT       P42
      000000B0H.3 SFRSYM    DATA     BIT       P33
      000000A0H.4 SFRSYM    DATA     BIT       P24
      00000090H.5 SFRSYM    DATA     BIT       P15
      00000080H.6 SFRSYM    DATA     BIT       P06
      000000B8H.6 SFRSYM    DATA     BIT       PLVD
      000000F8H.0 SFRSYM    DATA     BIT       P70
      000000E8H.1 SFRSYM    DATA     BIT       P61
      000000C8H.2 SFRSYM    DATA     BIT       P52
      000000C0H.3 SFRSYM    DATA     BIT       P43
      000000B0H.4 SFRSYM    DATA     BIT       P34
      000000A0H.5 SFRSYM    DATA     BIT       P25
      00000090H.6 SFRSYM    DATA     BIT       P16
      00000080H.7 SFRSYM    DATA     BIT       P07
      000000F8H.1 SFRSYM    DATA     BIT       P71
      000000E8H.2 SFRSYM    DATA     BIT       P62
      000000C8H.3 SFRSYM    DATA     BIT       P53
      000000C0H.4 SFRSYM    DATA     BIT       P44
      000000B0H.5 SFRSYM    DATA     BIT       P35
      000000A0H.6 SFRSYM    DATA     BIT       P26
      00000090H.7 SFRSYM    DATA     BIT       P17
      000000F8H.2 SFRSYM    DATA     BIT       P72
      000000E8H.3 SFRSYM    DATA     BIT       P63
      000000C8H.4 SFRSYM    DATA     BIT       P54
      000000C0H.5 SFRSYM    DATA     BIT       P45
      000000B0H.6 SFRSYM    DATA     BIT       P36
      000000A0H.7 SFRSYM    DATA     BIT       P27
      000000F8H.3 SFRSYM    DATA     BIT       P73
      000000E8H.4 SFRSYM    DATA     BIT       P64
      000000C8H.5 SFRSYM    DATA     BIT       P55
      000000C0H.6 SFRSYM    DATA     BIT       P46
      000000B0H.7 SFRSYM    DATA     BIT       P37
      000000F8H.4 SFRSYM    DATA     BIT       P74
      000000E8H.5 SFRSYM    DATA     BIT       P65
      000000C8H.6 SFRSYM    DATA     BIT       P56
      000000C0H.7 SFRSYM    DATA     BIT       P47
      000000F8H.5 SFRSYM    DATA     BIT       P75
      000000E8H.6 SFRSYM    DATA     BIT       P66
      000000C8H.7 SFRSYM    DATA     BIT       P57
      000000F8H.6 SFRSYM    DATA     BIT       P76
      000000E8H.7 SFRSYM    DATA     BIT       P67
      00000088H.1 SFRSYM    DATA     BIT       IE0
      000000A1H   SFRSYM    DATA     BYTE      BUS_SPEED
      000000F8H.7 SFRSYM    DATA     BIT       P77
      00000088H.3 SFRSYM    DATA     BIT       IE1
      000000AFH   SFRSYM    DATA     BYTE      IE2
      0000008EH   SFRSYM    DATA     BYTE      AUXR
      000000F0H   SFRSYM    DATA     BYTE      B
      000000C7H   SFRSYM    DATA     BYTE      IAP_CONTR
      000000F1H   SFRSYM    DATA     BYTE      PWMCFG
      000000E0H   SFRSYM    DATA     BYTE      ACC
      000000A8H.1 SFRSYM    DATA     BIT       ET0
      00000088H.5 SFRSYM    DATA     BIT       TF0
      000000A8H.3 SFRSYM    DATA     BIT       ET1
      0000008CH   SFRSYM    DATA     BYTE      RL_TH0
      00000088H.7 SFRSYM    DATA     BIT       TF1
      000000B5H   SFRSYM    DATA     BYTE      IP2
LX51 LINKER/LOCATER V4.66.93.0                                                        07/16/2024  15:06:14  PAGE 30


      0000008DH   SFRSYM    DATA     BYTE      RL_TH1
      00000098H.2 SFRSYM    DATA     BIT       RB8
      0000008CH   SFRSYM    DATA     BYTE      TH0
      000000D6H   SFRSYM    DATA     BYTE      RL_T2H
      0000008DH   SFRSYM    DATA     BYTE      TH1
      00000088H.0 SFRSYM    DATA     BIT       IT0
      000000A8H.0 SFRSYM    DATA     BIT       EX0
      000000D4H   SFRSYM    DATA     BYTE      RL_T3H
      000000D6H   SFRSYM    DATA     BYTE      TH2
      00000098H.3 SFRSYM    DATA     BIT       TB8
      000000D6H   SFRSYM    DATA     BYTE      T2H
      00000088H.2 SFRSYM    DATA     BIT       IT1
      000000A8H.2 SFRSYM    DATA     BIT       EX1
      000000D2H   SFRSYM    DATA     BYTE      RL_T4H
      000000D4H   SFRSYM    DATA     BYTE      TH3
      0000008AH   SFRSYM    DATA     BYTE      RL_TL0
      000000D4H   SFRSYM    DATA     BYTE      T3H
      000000D0H.0 SFRSYM    DATA     BIT       P
      000000D2H   SFRSYM    DATA     BYTE      TH4
      0000008BH   SFRSYM    DATA     BYTE      RL_TL1
      00000098H.7 SFRSYM    DATA     BIT       SM0
      000000D2H   SFRSYM    DATA     BYTE      T4H
      0000008AH   SFRSYM    DATA     BYTE      TL0
      000000D7H   SFRSYM    DATA     BYTE      RL_T2L
      00000098H.6 SFRSYM    DATA     BIT       SM1
      0000008BH   SFRSYM    DATA     BYTE      TL1
      000000D5H   SFRSYM    DATA     BYTE      RL_T3L
      000000D7H   SFRSYM    DATA     BYTE      TL2
      00000098H.5 SFRSYM    DATA     BIT       SM2
      000000D7H   SFRSYM    DATA     BYTE      T2L
      000000D3H   SFRSYM    DATA     BYTE      RL_T4L
      000000D5H   SFRSYM    DATA     BYTE      TL3
      000000D5H   SFRSYM    DATA     BYTE      T3L
      000000D3H   SFRSYM    DATA     BYTE      TL4
      000000D3H   SFRSYM    DATA     BYTE      T4L
      000000B8H.1 SFRSYM    DATA     BIT       PT0
      000000C7H   SFRSYM    DATA     BYTE      ISP_CONTR
      000000B8H.3 SFRSYM    DATA     BIT       PT1
      000000D0H.3 SFRSYM    DATA     BIT       RS0
      000000C2H   SFRSYM    DATA     BYTE      IAP_DATA
      00000088H.4 SFRSYM    DATA     BIT       TR0
      000000D0H.4 SFRSYM    DATA     BIT       RS1
      00000088H.6 SFRSYM    DATA     BIT       TR1
      000000C1H   SFRSYM    DATA     BYTE      WDT_CONTR
      000000B8H.0 SFRSYM    DATA     BIT       PX0
      000000B8H.2 SFRSYM    DATA     BIT       PX1
      000000F2H   SFRSYM    DATA     BYTE      PCA_PWM0
      000000F3H   SFRSYM    DATA     BYTE      PCA_PWM1
      000000F4H   SFRSYM    DATA     BYTE      PCA_PWM2
      0000009DH   SFRSYM    DATA     BYTE      P1ASF
      00000083H   SFRSYM    DATA     BYTE      DPH
      000000D1H   SFRSYM    DATA     BYTE      T3T4M
      000000D1H   SFRSYM    DATA     BYTE      T4T3M
      000000BEH   SFRSYM    DATA     BYTE      ADC_RESL
      00000082H   SFRSYM    DATA     BYTE      DPL
      000000B7H   SFRSYM    DATA     BYTE      IPH
      000000CDH   SFRSYM    DATA     BYTE      SPSTAT
      0000009BH   SFRSYM    DATA     BYTE      S2BUF
      00000097H   SFRSYM    DATA     BYTE      PCON2
      000000ADH   SFRSYM    DATA     BYTE      S3BUF
      00000085H   SFRSYM    DATA     BYTE      S4BUF
      00000098H.4 SFRSYM    DATA     BIT       REN
      0000009AH   SFRSYM    DATA     BYTE      S2CON
      000000ACH   SFRSYM    DATA     BYTE      S3CON
      000000C2H   SFRSYM    DATA     BYTE      ISP_DATA
LX51 LINKER/LOCATER V4.66.93.0                                                        07/16/2024  15:06:14  PAGE 31


      00000084H   SFRSYM    DATA     BYTE      S4CON
      000000B9H   SFRSYM    DATA     BYTE      SADEN
      000000B0H.0 SFRSYM    DATA     BIT       RXD
      000000A9H   SFRSYM    DATA     BYTE      SADDR
      000000B0H.1 SFRSYM    DATA     BIT       TXD
      000000F0H.0 SFRSYM    DATA     BIT       B0
      000000C6H   SFRSYM    DATA     BYTE      IAP_TRIG
      000000A2H   SFRSYM    DATA     BYTE      AUXR1
      000000F0H.1 SFRSYM    DATA     BIT       B1
      00000090H.2 SFRSYM    DATA     BIT       SPI_SS
      0000008FH   SFRSYM    DATA     BYTE      AUXR2
      000000F0H.2 SFRSYM    DATA     BIT       B2
      000000F0H.3 SFRSYM    DATA     BIT       B3
      000000D0H.5 SFRSYM    DATA     BIT       F0
      000000F0H.4 SFRSYM    DATA     BIT       B4
      0000008FH   SFRSYM    DATA     BYTE      INT_CLKO
      000000D0H.1 SFRSYM    DATA     BIT       F1
      000000F0H.5 SFRSYM    DATA     BIT       B5
      000000F0H.6 SFRSYM    DATA     BIT       B6
      000000E0H.0 SFRSYM    DATA     BIT       ACC0
      000000F0H.7 SFRSYM    DATA     BIT       B7
      000000E0H.1 SFRSYM    DATA     BIT       ACC1
      000000E0H.2 SFRSYM    DATA     BIT       ACC2
      000000D0H   SFRSYM    DATA     BYTE      PSW
      000000E0H.3 SFRSYM    DATA     BIT       ACC3
      00000090H.5 SFRSYM    DATA     BIT       SPI_SCLK
      000000E0H.4 SFRSYM    DATA     BIT       ACC4
      000000D8H.0 SFRSYM    DATA     BIT       CCF0
      000000E0H.5 SFRSYM    DATA     BIT       ACC5
      000000D8H.1 SFRSYM    DATA     BIT       CCF1
      000000CFH   SFRSYM    DATA     BYTE      SPDAT
      00000094H   SFRSYM    DATA     BYTE      P0M0
      000000E0H.6 SFRSYM    DATA     BIT       ACC6

      01003E20H   BLOCK     CODE     ---       LVL=0
      01003E20H   LINE      CODE     ---       #29
      01003E20H   LINE      CODE     ---       #30
      01003E20H   LINE      CODE     ---       #31
      01003E25H   LINE      CODE     ---       #32
      01003E29H   LINE      CODE     ---       #33
      01003E2DH   LINE      CODE     ---       #34
      01003E31H   LINE      CODE     ---       #35
      01003E35H   LINE      CODE     ---       #36
      01003E39H   LINE      CODE     ---       #37
      ---         BLOCKEND  ---      ---       LVL=0

      01003C6BH   BLOCK     CODE     ---       LVL=0
      00000006H   SYMBOL    DATA     WORD      x
      01003C6BH   BLOCK     CODE     NEAR LAB  LVL=1
      00000004H   SYMBOL    DATA     WORD      j
      00000002H   SYMBOL    DATA     WORD      i
      ---         BLOCKEND  ---      ---       LVL=1
      01003C6BH   LINE      CODE     ---       #39
      01003C6BH   LINE      CODE     ---       #40
      01003C6BH   LINE      CODE     ---       #42
      01003C75H   LINE      CODE     ---       #43
      01003C75H   LINE      CODE     ---       #44
      01003C83H   LINE      CODE     ---       #45
      01003C8AH   LINE      CODE     ---       #46
      ---         BLOCKEND  ---      ---       LVL=0

      01003749H   BLOCK     CODE     ---       LVL=0
      01003749H   LINE      CODE     ---       #48
      01003749H   LINE      CODE     ---       #49
      01003749H   LINE      CODE     ---       #50
LX51 LINKER/LOCATER V4.66.93.0                                                        07/16/2024  15:06:14  PAGE 32


      01003749H   LINE      CODE     ---       #51
      01003749H   LINE      CODE     ---       #52
      0100374CH   LINE      CODE     ---       #54
      0100374FH   LINE      CODE     ---       #55
      01003752H   LINE      CODE     ---       #56
      01003755H   LINE      CODE     ---       #58
      01003758H   LINE      CODE     ---       #60
      0100375BH   LINE      CODE     ---       #61
      0100375EH   LINE      CODE     ---       #63
      01003761H   LINE      CODE     ---       #64
      01003764H   LINE      CODE     ---       #65
      01003767H   LINE      CODE     ---       #67
      0100376AH   LINE      CODE     ---       #68
      0100376DH   LINE      CODE     ---       #69
      01003770H   LINE      CODE     ---       #70
      01003773H   LINE      CODE     ---       #72
      01003776H   LINE      CODE     ---       #73
      01003779H   LINE      CODE     ---       #74
      0100377CH   LINE      CODE     ---       #75
      0100377FH   LINE      CODE     ---       #76
      01003782H   LINE      CODE     ---       #77
      01003785H   LINE      CODE     ---       #79
      ---         BLOCKEND  ---      ---       LVL=0

      01003F14H   BLOCK     CODE     ---       LVL=0
      00000007H   SYMBOL    DATA     BYTE      dat
      01003F14H   LINE      CODE     ---       #82
      01003F14H   LINE      CODE     ---       #83
      01003F14H   LINE      CODE     ---       #84
      01003F16H   LINE      CODE     ---       #85
      01003F19H   LINE      CODE     ---       #86
      01003F1BH   LINE      CODE     ---       #87
      ---         BLOCKEND  ---      ---       LVL=0

      01003C02H   BLOCK     CODE     ---       LVL=0
      00000015H   SYMBOL    DATA     ---       s
      01003C02H   LINE      CODE     ---       #91
      01003C08H   LINE      CODE     ---       #92
      01003C08H   LINE      CODE     ---       #93
      01003C13H   LINE      CODE     ---       #94
      01003C13H   LINE      CODE     ---       #95
      01003C24H   LINE      CODE     ---       #96
      01003C26H   LINE      CODE     ---       #97
      ---         BLOCKEND  ---      ---       LVL=0

      01003786H   BLOCK     CODE     ---       LVL=0
      01003786H   LINE      CODE     ---       #110
      0100378EH   LINE      CODE     ---       #112
      01003790H   LINE      CODE     ---       #113
      01003793H   LINE      CODE     ---       #114
      01003793H   LINE      CODE     ---       #115
      01003795H   LINE      CODE     ---       #116
      010037A3H   LINE      CODE     ---       #117
      010037A5H   LINE      CODE     ---       #118
      010037B0H   LINE      CODE     ---       #119
      010037B0H   LINE      CODE     ---       #120
      010037B3H   LINE      CODE     ---       #121
      010037B3H   LINE      CODE     ---       #122
      010037B3H   LINE      CODE     ---       #123
      010037B6H   LINE      CODE     ---       #124
      010037B6H   LINE      CODE     ---       #125
      010037B8H   LINE      CODE     ---       #126
      010037B8H   LINE      CODE     ---       #127
      010037BAH   LINE      CODE     ---       #128
      ---         BLOCKEND  ---      ---       LVL=0
LX51 LINKER/LOCATER V4.66.93.0                                                        07/16/2024  15:06:14  PAGE 33



      01003EE9H   BLOCK     CODE     ---       LVL=0
      00000007H   SYMBOL    DATA     BYTE      dat
      01003EE9H   LINE      CODE     ---       #131
      01003EE9H   LINE      CODE     ---       #132
      01003EE9H   LINE      CODE     ---       #133
      01003EEBH   LINE      CODE     ---       #134
      01003EF0H   LINE      CODE     ---       #135
      01003EF3H   LINE      CODE     ---       #136
      ---         BLOCKEND  ---      ---       LVL=0

      01003C8BH   BLOCK     CODE     ---       LVL=0
      01003C8BH   BLOCK     CODE     NEAR LAB  LVL=1
      00000007H   SYMBOL    DATA     BYTE      k
      ---         BLOCKEND  ---      ---       LVL=1
      01003C8BH   LINE      CODE     ---       #148
      01003C8BH   LINE      CODE     ---       #149
      01003C8BH   LINE      CODE     ---       #151
      01003C97H   LINE      CODE     ---       #152
      01003C97H   LINE      CODE     ---       #153
      01003CA3H   LINE      CODE     ---       #154
      01003CA6H   LINE      CODE     ---       #155
      01003CA9H   LINE      CODE     ---       #156
      ---         BLOCKEND  ---      ---       LVL=0

      01000046H   BLOCK     CODE     ---       LVL=0
      01000046H   LINE      CODE     ---       #157
      0100004EH   LINE      CODE     ---       #159
      01000051H   LINE      CODE     ---       #160
      01000056H   LINE      CODE     ---       #161
      01000056H   LINE      CODE     ---       #162
      01000059H   LINE      CODE     ---       #163
      01000067H   LINE      CODE     ---       #164
      01000069H   LINE      CODE     ---       #166
      01000074H   LINE      CODE     ---       #167
      01000074H   LINE      CODE     ---       #168
      01000077H   LINE      CODE     ---       #169
      01000077H   LINE      CODE     ---       #170
      01000077H   LINE      CODE     ---       #171
      0100007CH   LINE      CODE     ---       #172
      0100007CH   LINE      CODE     ---       #173
      0100007FH   LINE      CODE     ---       #174
      0100007FH   LINE      CODE     ---       #175
      01000082H   LINE      CODE     ---       #176
      ---         BLOCKEND  ---      ---       LVL=0

      01003EF4H   BLOCK     CODE     ---       LVL=0
      00000007H   SYMBOL    DATA     BYTE      dat
      01003EF4H   LINE      CODE     ---       #179
      01003EF4H   LINE      CODE     ---       #180
      01003EF4H   LINE      CODE     ---       #181
      01003EF6H   LINE      CODE     ---       #182
      01003EFBH   LINE      CODE     ---       #183
      01003EFEH   LINE      CODE     ---       #184
      ---         BLOCKEND  ---      ---       LVL=0

      01003A89H   BLOCK     CODE     ---       LVL=0
      00000024H   SYMBOL    DATA     ---       s
      01003A89H   LINE      CODE     ---       #187
      01003A8FH   LINE      CODE     ---       #188
      01003A8FH   LINE      CODE     ---       #189
      01003A92H   LINE      CODE     ---       #190
      01003A9DH   LINE      CODE     ---       #191
      01003A9DH   LINE      CODE     ---       #192
      01003AAEH   LINE      CODE     ---       #193
LX51 LINKER/LOCATER V4.66.93.0                                                        07/16/2024  15:06:14  PAGE 34


      01003AB0H   LINE      CODE     ---       #194
      01003AB3H   LINE      CODE     ---       #195
      ---         BLOCKEND  ---      ---       LVL=0

      01003CAAH   BLOCK     CODE     ---       LVL=0
      01003CAAH   BLOCK     CODE     NEAR LAB  LVL=1
      00000007H   SYMBOL    DATA     BYTE      k
      ---         BLOCKEND  ---      ---       LVL=1
      01003CAAH   LINE      CODE     ---       #197
      01003CAAH   LINE      CODE     ---       #198
      01003CAAH   LINE      CODE     ---       #200
      01003CB6H   LINE      CODE     ---       #201
      01003CB6H   LINE      CODE     ---       #202
      01003CC2H   LINE      CODE     ---       #203
      01003CC5H   LINE      CODE     ---       #204
      01003CC8H   LINE      CODE     ---       #205
      ---         BLOCKEND  ---      ---       LVL=0

      01003704H   BLOCK     CODE     ---       LVL=0
      01003704H   LINE      CODE     ---       #207
      0100370CH   LINE      CODE     ---       #209
      0100370FH   LINE      CODE     ---       #210
      01003714H   LINE      CODE     ---       #211
      01003714H   LINE      CODE     ---       #212
      01003717H   LINE      CODE     ---       #213
      01003725H   LINE      CODE     ---       #214
      01003727H   LINE      CODE     ---       #215
      01003732H   LINE      CODE     ---       #216
      01003732H   LINE      CODE     ---       #217
      01003735H   LINE      CODE     ---       #218
      01003735H   LINE      CODE     ---       #219
      01003735H   LINE      CODE     ---       #220
      0100373AH   LINE      CODE     ---       #221
      0100373AH   LINE      CODE     ---       #222
      0100373DH   LINE      CODE     ---       #223
      0100373DH   LINE      CODE     ---       #224
      01003740H   LINE      CODE     ---       #225
      ---         BLOCKEND  ---      ---       LVL=0

      01003EFFH   BLOCK     CODE     ---       LVL=0
      00000007H   SYMBOL    DATA     BYTE      dat
      01003EFFH   LINE      CODE     ---       #227
      01003EFFH   LINE      CODE     ---       #228
      01003EFFH   LINE      CODE     ---       #229
      01003F01H   LINE      CODE     ---       #230
      01003F06H   LINE      CODE     ---       #231
      01003F09H   LINE      CODE     ---       #232
      ---         BLOCKEND  ---      ---       LVL=0

      01003AB4H   BLOCK     CODE     ---       LVL=0
      00000027H   SYMBOL    DATA     ---       s
      01003AB4H   LINE      CODE     ---       #234
      01003ABAH   LINE      CODE     ---       #235
      01003ABAH   LINE      CODE     ---       #236
      01003ABDH   LINE      CODE     ---       #237
      01003AC8H   LINE      CODE     ---       #238
      01003AC8H   LINE      CODE     ---       #239
      01003AD9H   LINE      CODE     ---       #240
      01003ADBH   LINE      CODE     ---       #241
      01003ADEH   LINE      CODE     ---       #242
      ---         BLOCKEND  ---      ---       LVL=0

      01003CC9H   BLOCK     CODE     ---       LVL=0
      01003CC9H   BLOCK     CODE     NEAR LAB  LVL=1
      00000007H   SYMBOL    DATA     BYTE      k
LX51 LINKER/LOCATER V4.66.93.0                                                        07/16/2024  15:06:14  PAGE 35


      ---         BLOCKEND  ---      ---       LVL=1
      01003CC9H   LINE      CODE     ---       #244
      01003CC9H   LINE      CODE     ---       #245
      01003CC9H   LINE      CODE     ---       #247
      01003CD5H   LINE      CODE     ---       #248
      01003CD5H   LINE      CODE     ---       #249
      01003CE1H   LINE      CODE     ---       #250
      01003CE4H   LINE      CODE     ---       #251
      01003CE7H   LINE      CODE     ---       #252
      ---         BLOCKEND  ---      ---       LVL=0

      01003396H   BLOCK     CODE     ---       LVL=0
      01003396H   LINE      CODE     ---       #255
      0100339EH   LINE      CODE     ---       #257
      010033A1H   LINE      CODE     ---       #258
      010033A6H   LINE      CODE     ---       #259
      010033A6H   LINE      CODE     ---       #260
      010033A9H   LINE      CODE     ---       #261
      010033B7H   LINE      CODE     ---       #262
      010033B9H   LINE      CODE     ---       #263
      010033C4H   LINE      CODE     ---       #264
      010033C4H   LINE      CODE     ---       #265
      010033C7H   LINE      CODE     ---       #266
      010033C7H   LINE      CODE     ---       #267
      010033C7H   LINE      CODE     ---       #268
      010033CCH   LINE      CODE     ---       #269
      010033CCH   LINE      CODE     ---       #270
      010033CFH   LINE      CODE     ---       #271
      010033CFH   LINE      CODE     ---       #272
      010033D5H   LINE      CODE     ---       #273
      010033D8H   LINE      CODE     ---       #274
      ---         BLOCKEND  ---      ---       LVL=0

      ---         MODULE    ---      ---       NARFL2401
      00000014H   PUBLIC    DATA     BYTE      cmd
      00000013H   PUBLIC    DATA     ---       TxPayload
      00000012H   PUBLIC    DATA     ---       RxPayload
      0000000DH   PUBLIC    DATA     ---       TX_ADDRESS
      00000008H   PUBLIC    DATA     ---       RX_ADDRESS
      01003800H   PUBLIC    CODE     ---       INT1_int
      01003E3AH   PUBLIC    CODE     ---       RF_ReceDat
      01003E69H   PUBLIC    CODE     ---       zhongduanyi
      01003BDBH   PUBLIC    CODE     ---       _NRF24L01_RxPacket_MA
      010037C3H   PUBLIC    CODE     ---       Set_RxMode_MA
      0000001BH   PUBLIC    DATA     BYTE      ?_NRF24L01_MA_Read_Buf?BYTE
      010039F7H   PUBLIC    CODE     ---       _NRF24L01_MA_Read_Buf
      01003EDCH   PUBLIC    CODE     ---       _NRF24L01_MA_Read_Reg
      01003E7DH   PUBLIC    CODE     ---       _NRF24L01_MA_Write_Reg
      00000015H   PUBLIC    DATA     BYTE      ?_NRF24L01_MA_Write_Buf?BYTE
      01003A2AH   PUBLIC    CODE     ---       _NRF24L01_MA_Write_Buf
      01000016H   PUBLIC    CODE     ---       _SPI_RW
      01000003H   PUBLIC    CODE     ---       Init_NRF24L01_MA
      01003F0AH   PUBLIC    CODE     ---       InitSPI
      000000D8H.2 SFRSYM    DATA     BIT       CCF2
      00000092H   SFRSYM    DATA     BYTE      P1M0
      00000093H   SFRSYM    DATA     BYTE      P0M1
      000000E0H.7 SFRSYM    DATA     BIT       ACC7
      00000096H   SFRSYM    DATA     BYTE      P2M0
      00000091H   SFRSYM    DATA     BYTE      P1M1
      00000080H   SFRSYM    DATA     BYTE      P0
      000000B2H   SFRSYM    DATA     BYTE      P3M0
      00000095H   SFRSYM    DATA     BYTE      P2M1
      00000090H   SFRSYM    DATA     BYTE      P1
      000000B4H   SFRSYM    DATA     BYTE      P4M0
      000000B1H   SFRSYM    DATA     BYTE      P3M1
LX51 LINKER/LOCATER V4.66.93.0                                                        07/16/2024  15:06:14  PAGE 36


      000000A0H   SFRSYM    DATA     BYTE      P2
      000000ABH   SFRSYM    DATA     BYTE      WKTCH
      000000CAH   SFRSYM    DATA     BYTE      P5M0
      000000B3H   SFRSYM    DATA     BYTE      P4M1
      000000B0H   SFRSYM    DATA     BYTE      P3
      000000B0H.4 SFRSYM    DATA     BIT       T0
      000000CCH   SFRSYM    DATA     BYTE      P6M0
      000000C9H   SFRSYM    DATA     BYTE      P5M1
      000000C0H   SFRSYM    DATA     BYTE      P4
      000000D0H.6 SFRSYM    DATA     BIT       AC
      000000B0H.5 SFRSYM    DATA     BIT       CLKOUT0
      000000B0H.5 SFRSYM    DATA     BIT       T1
      000000C6H   SFRSYM    DATA     BYTE      ISP_TRIG
      000000F6H   SFRSYM    DATA     BYTE      PWMIF
      000000E2H   SFRSYM    DATA     BYTE      P7M0
      000000CBH   SFRSYM    DATA     BYTE      P6M1
      000000C8H   SFRSYM    DATA     BYTE      P5
      000000B0H.4 SFRSYM    DATA     BIT       CLKOUT1
      000000A0H.4 SFRSYM    DATA     BIT       SPI_SS_2
      000000A8H.7 SFRSYM    DATA     BIT       EA
      000000E1H   SFRSYM    DATA     BYTE      P7M1
      000000E8H   SFRSYM    DATA     BYTE      P6
      000000C8H.4 SFRSYM    DATA     BIT       SPI_SS_3
      00000090H.4 SFRSYM    DATA     BIT       SPI_MISO
      00000090H.3 SFRSYM    DATA     BIT       SPI_MOSI
      00000090H.1 SFRSYM    DATA     BIT       CCP0
      000000AAH   SFRSYM    DATA     BYTE      WKTCL
      000000F8H   SFRSYM    DATA     BYTE      P7
      00000090H.0 SFRSYM    DATA     BIT       CCP1
      000000CEH   SFRSYM    DATA     BYTE      SPCTL
      00000080H.5 SFRSYM    DATA     BIT       led_r
      000000B0H.7 SFRSYM    DATA     BIT       CCP2
      000000D8H.7 SFRSYM    DATA     BIT       CF
      000000F5H   SFRSYM    DATA     BYTE      PWMCR
      000000F9H   SFRSYM    DATA     BYTE      CH
      000000A2H   SFRSYM    DATA     BYTE      P_SW1
      000000BAH   SFRSYM    DATA     BYTE      P_SW2
      000000A0H.1 SFRSYM    DATA     BIT       SPI_SCLK_2
      000000A8H.5 SFRSYM    DATA     BIT       EADC
      000000A8H   SFRSYM    DATA     BYTE      IE
      000000C0H.3 SFRSYM    DATA     BIT       SPI_SCLK_3
      000000E9H   SFRSYM    DATA     BYTE      CL
      000000C5H   SFRSYM    DATA     BYTE      IAP_CMD
      000000FAH   SFRSYM    DATA     BYTE      CCAP0H
      000000FBH   SFRSYM    DATA     BYTE      CCAP1H
      000000FCH   SFRSYM    DATA     BYTE      CCAP2H
      000000B6H   SFRSYM    DATA     BYTE      IPH2
      000000BDH   SFRSYM    DATA     BYTE      ADC_RES
      000000EAH   SFRSYM    DATA     BYTE      CCAP0L
      000000D8H.6 SFRSYM    DATA     BIT       CR
      000000B0H.7 SFRSYM    DATA     BIT       RD
      000000F7H   SFRSYM    DATA     BYTE      PWMFDCR
      000000EBH   SFRSYM    DATA     BYTE      CCAP1L
      000000DAH   SFRSYM    DATA     BYTE      CCAPM0
      000000ECH   SFRSYM    DATA     BYTE      CCAP2L
      000000DBH   SFRSYM    DATA     BYTE      CCAPM1
      000000DCH   SFRSYM    DATA     BYTE      CCAPM2
      000000A8H.4 SFRSYM    DATA     BIT       ES
      000000A0H.2 SFRSYM    DATA     BIT       SPI_MISO_2
      000000A0H.3 SFRSYM    DATA     BIT       SPI_MOSI_2
      000000B8H.5 SFRSYM    DATA     BIT       PADC
      000000B8H   SFRSYM    DATA     BYTE      IP
      000000C0H.1 SFRSYM    DATA     BIT       SPI_MISO_3
      000000C0H.0 SFRSYM    DATA     BIT       SPI_MOSI_3
      00000098H.0 SFRSYM    DATA     BIT       RI
LX51 LINKER/LOCATER V4.66.93.0                                                        07/16/2024  15:06:14  PAGE 37


      000000B0H.2 SFRSYM    DATA     BIT       INT0
      000000D0H.7 SFRSYM    DATA     BIT       CY
      000000B0H.3 SFRSYM    DATA     BIT       INT1
      00000098H.1 SFRSYM    DATA     BIT       TI
      00000097H   SFRSYM    DATA     BYTE      CLK_DIV
      000000C3H   SFRSYM    DATA     BYTE      IAP_ADDRH
      00000090H.0 SFRSYM    DATA     BIT       RXD2
      000000C5H   SFRSYM    DATA     BYTE      ISP_CMD
      00000090H.1 SFRSYM    DATA     BIT       TXD2
      000000B8H.4 SFRSYM    DATA     BIT       PS
      00000081H   SFRSYM    DATA     BYTE      SP
      000000D9H   SFRSYM    DATA     BYTE      CMOD
      000000D8H   SFRSYM    DATA     BYTE      CCON
      000000C4H   SFRSYM    DATA     BYTE      IAP_ADDRL
      000000B8H.7 SFRSYM    DATA     BIT       PPCA
      000000D0H.2 SFRSYM    DATA     BIT       OV
      000000E6H   SFRSYM    DATA     BYTE      CMPCR1
      000000B0H.6 SFRSYM    DATA     BIT       WR
      000000E7H   SFRSYM    DATA     BYTE      CMPCR2
      000000A8H.6 SFRSYM    DATA     BIT       ELVD
      00000080H.0 SFRSYM    DATA     BIT       P00
      000000BCH   SFRSYM    DATA     BYTE      ADC_CONTR
      00000099H   SFRSYM    DATA     BYTE      SBUF
      00000087H   SFRSYM    DATA     BYTE      PCON
      00000090H.0 SFRSYM    DATA     BIT       P10
      00000080H.1 SFRSYM    DATA     BIT       P01
      000000C3H   SFRSYM    DATA     BYTE      ISP_ADDRH
      000000A0H.0 SFRSYM    DATA     BIT       P20
      00000090H.1 SFRSYM    DATA     BIT       P11
      00000080H.2 SFRSYM    DATA     BIT       P02
      000000B0H.0 SFRSYM    DATA     BIT       P30
      000000A0H.1 SFRSYM    DATA     BIT       P21
      00000090H.2 SFRSYM    DATA     BIT       P12
      00000080H.3 SFRSYM    DATA     BIT       P03
      00000098H   SFRSYM    DATA     BYTE      SCON
      0000008FH   SFRSYM    DATA     BYTE      WAKE_CLKO
      000000C0H.0 SFRSYM    DATA     BIT       P40
      000000B0H.1 SFRSYM    DATA     BIT       P31
      000000A0H.2 SFRSYM    DATA     BIT       P22
      00000090H.3 SFRSYM    DATA     BIT       P13
      00000080H.4 SFRSYM    DATA     BIT       P04
      00000089H   SFRSYM    DATA     BYTE      TMOD
      00000088H   SFRSYM    DATA     BYTE      TCON
      000000C8H.0 SFRSYM    DATA     BIT       P50
      000000C0H.1 SFRSYM    DATA     BIT       P41
      000000B0H.2 SFRSYM    DATA     BIT       P32
      000000A0H.3 SFRSYM    DATA     BIT       P23
      00000090H.4 SFRSYM    DATA     BIT       P14
      00000080H.5 SFRSYM    DATA     BIT       P05
      000000C4H   SFRSYM    DATA     BYTE      ISP_ADDRL
      000000E8H.0 SFRSYM    DATA     BIT       P60
      000000C8H.1 SFRSYM    DATA     BIT       P51
      000000C0H.2 SFRSYM    DATA     BIT       P42
      000000B0H.3 SFRSYM    DATA     BIT       P33
      000000A0H.4 SFRSYM    DATA     BIT       P24
      00000090H.5 SFRSYM    DATA     BIT       P15
      00000080H.6 SFRSYM    DATA     BIT       P06
      000000B8H.6 SFRSYM    DATA     BIT       PLVD
      000000F8H.0 SFRSYM    DATA     BIT       P70
      000000E8H.1 SFRSYM    DATA     BIT       P61
      000000C8H.2 SFRSYM    DATA     BIT       P52
      000000C0H.3 SFRSYM    DATA     BIT       P43
      000000B0H.4 SFRSYM    DATA     BIT       P34
      000000A0H.5 SFRSYM    DATA     BIT       P25
      00000090H.6 SFRSYM    DATA     BIT       P16
LX51 LINKER/LOCATER V4.66.93.0                                                        07/16/2024  15:06:14  PAGE 38


      00000080H.7 SFRSYM    DATA     BIT       P07
      000000F8H.1 SFRSYM    DATA     BIT       P71
      000000E8H.2 SFRSYM    DATA     BIT       P62
      000000C8H.3 SFRSYM    DATA     BIT       P53
      000000C0H.4 SFRSYM    DATA     BIT       P44
      000000B0H.5 SFRSYM    DATA     BIT       P35
      000000A0H.6 SFRSYM    DATA     BIT       P26
      00000090H.7 SFRSYM    DATA     BIT       P17
      000000F8H.2 SFRSYM    DATA     BIT       P72
      000000E8H.3 SFRSYM    DATA     BIT       P63
      000000C8H.4 SFRSYM    DATA     BIT       P54
      000000C0H.5 SFRSYM    DATA     BIT       P45
      000000B0H.6 SFRSYM    DATA     BIT       P36
      000000A0H.7 SFRSYM    DATA     BIT       P27
      000000F8H.3 SFRSYM    DATA     BIT       P73
      000000E8H.4 SFRSYM    DATA     BIT       P64
      000000C8H.5 SFRSYM    DATA     BIT       P55
      000000C0H.6 SFRSYM    DATA     BIT       P46
      000000B0H.7 SFRSYM    DATA     BIT       P37
      000000F8H.4 SFRSYM    DATA     BIT       P74
      000000E8H.5 SFRSYM    DATA     BIT       P65
      000000C8H.6 SFRSYM    DATA     BIT       P56
      000000C0H.7 SFRSYM    DATA     BIT       P47
      000000F8H.5 SFRSYM    DATA     BIT       P75
      000000E8H.6 SFRSYM    DATA     BIT       P66
      000000C8H.7 SFRSYM    DATA     BIT       P57
      000000F8H.6 SFRSYM    DATA     BIT       P76
      000000E8H.7 SFRSYM    DATA     BIT       P67
      00000088H.1 SFRSYM    DATA     BIT       IE0
      000000A1H   SFRSYM    DATA     BYTE      BUS_SPEED
      000000F8H.7 SFRSYM    DATA     BIT       P77
      00000088H.3 SFRSYM    DATA     BIT       IE1
      000000AFH   SFRSYM    DATA     BYTE      IE2
      0000008EH   SFRSYM    DATA     BYTE      AUXR
      000000F0H   SFRSYM    DATA     BYTE      B
      000000C7H   SFRSYM    DATA     BYTE      IAP_CONTR
      000000F1H   SFRSYM    DATA     BYTE      PWMCFG
      000000E0H   SFRSYM    DATA     BYTE      ACC
      000000A8H.1 SFRSYM    DATA     BIT       ET0
      00000088H.5 SFRSYM    DATA     BIT       TF0
      000000A8H.3 SFRSYM    DATA     BIT       ET1
      0000008CH   SFRSYM    DATA     BYTE      RL_TH0
      00000088H.7 SFRSYM    DATA     BIT       TF1
      000000B5H   SFRSYM    DATA     BYTE      IP2
      0000008DH   SFRSYM    DATA     BYTE      RL_TH1
      00000098H.2 SFRSYM    DATA     BIT       RB8
      0000008CH   SFRSYM    DATA     BYTE      TH0
      000000D6H   SFRSYM    DATA     BYTE      RL_T2H
      0000008DH   SFRSYM    DATA     BYTE      TH1
      00000088H.0 SFRSYM    DATA     BIT       IT0
      000000A8H.0 SFRSYM    DATA     BIT       EX0
      000000D4H   SFRSYM    DATA     BYTE      RL_T3H
      000000D6H   SFRSYM    DATA     BYTE      TH2
      00000098H.3 SFRSYM    DATA     BIT       TB8
      000000D6H   SFRSYM    DATA     BYTE      T2H
      00000088H.2 SFRSYM    DATA     BIT       IT1
      000000A8H.2 SFRSYM    DATA     BIT       EX1
      000000D2H   SFRSYM    DATA     BYTE      RL_T4H
      000000D4H   SFRSYM    DATA     BYTE      TH3
      0000008AH   SFRSYM    DATA     BYTE      RL_TL0
      000000D4H   SFRSYM    DATA     BYTE      T3H
      000000D0H.0 SFRSYM    DATA     BIT       P
      000000D2H   SFRSYM    DATA     BYTE      TH4
      0000008BH   SFRSYM    DATA     BYTE      RL_TL1
      00000098H.7 SFRSYM    DATA     BIT       SM0
LX51 LINKER/LOCATER V4.66.93.0                                                        07/16/2024  15:06:14  PAGE 39


      000000D2H   SFRSYM    DATA     BYTE      T4H
      0000008AH   SFRSYM    DATA     BYTE      TL0
      000000D7H   SFRSYM    DATA     BYTE      RL_T2L
      00000098H.6 SFRSYM    DATA     BIT       SM1
      0000008BH   SFRSYM    DATA     BYTE      TL1
      000000D5H   SFRSYM    DATA     BYTE      RL_T3L
      000000D7H   SFRSYM    DATA     BYTE      TL2
      00000098H.5 SFRSYM    DATA     BIT       SM2
      000000D7H   SFRSYM    DATA     BYTE      T2L
      000000B0H.4 SFRSYM    DATA     BIT       en
      000000D3H   SFRSYM    DATA     BYTE      RL_T4L
      000000D5H   SFRSYM    DATA     BYTE      TL3
      000000D5H   SFRSYM    DATA     BYTE      T3L
      000000D3H   SFRSYM    DATA     BYTE      TL4
      000000D3H   SFRSYM    DATA     BYTE      T4L
      000000B8H.1 SFRSYM    DATA     BIT       PT0
      000000C7H   SFRSYM    DATA     BYTE      ISP_CONTR
      000000B8H.3 SFRSYM    DATA     BIT       PT1
      000000D0H.3 SFRSYM    DATA     BIT       RS0
      000000C2H   SFRSYM    DATA     BYTE      IAP_DATA
      00000088H.4 SFRSYM    DATA     BIT       TR0
      000000D0H.4 SFRSYM    DATA     BIT       RS1
      00000088H.6 SFRSYM    DATA     BIT       TR1
      000000C1H   SFRSYM    DATA     BYTE      WDT_CONTR
      000000B8H.0 SFRSYM    DATA     BIT       PX0
      000000B8H.2 SFRSYM    DATA     BIT       PX1
      000000F2H   SFRSYM    DATA     BYTE      PCA_PWM0
      000000F3H   SFRSYM    DATA     BYTE      PCA_PWM1
      000000F4H   SFRSYM    DATA     BYTE      PCA_PWM2
      0000009DH   SFRSYM    DATA     BYTE      P1ASF
      00000083H   SFRSYM    DATA     BYTE      DPH
      000000D1H   SFRSYM    DATA     BYTE      T3T4M
      000000D1H   SFRSYM    DATA     BYTE      T4T3M
      000000BEH   SFRSYM    DATA     BYTE      ADC_RESL
      00000082H   SFRSYM    DATA     BYTE      DPL
      000000B7H   SFRSYM    DATA     BYTE      IPH
      000000CDH   SFRSYM    DATA     BYTE      SPSTAT
      00000090H.2 SFRSYM    DATA     BIT       SPI_CS
      0000009BH   SFRSYM    DATA     BYTE      S2BUF
      00000097H   SFRSYM    DATA     BYTE      PCON2
      000000ADH   SFRSYM    DATA     BYTE      S3BUF
      00000085H   SFRSYM    DATA     BYTE      S4BUF
      00000098H.4 SFRSYM    DATA     BIT       REN
      0000009AH   SFRSYM    DATA     BYTE      S2CON
      000000ACH   SFRSYM    DATA     BYTE      S3CON
      000000C2H   SFRSYM    DATA     BYTE      ISP_DATA
      00000084H   SFRSYM    DATA     BYTE      S4CON
      000000B0H.3 SFRSYM    DATA     BIT       IRQ
      000000B9H   SFRSYM    DATA     BYTE      SADEN
      000000B0H.0 SFRSYM    DATA     BIT       RXD
      000000A9H   SFRSYM    DATA     BYTE      SADDR
      000000B0H.1 SFRSYM    DATA     BIT       TXD
      000000F0H.0 SFRSYM    DATA     BIT       B0
      000000C6H   SFRSYM    DATA     BYTE      IAP_TRIG
      000000A2H   SFRSYM    DATA     BYTE      AUXR1
      000000F0H.1 SFRSYM    DATA     BIT       B1
      00000090H.2 SFRSYM    DATA     BIT       SPI_SS
      0000008FH   SFRSYM    DATA     BYTE      AUXR2
      000000F0H.2 SFRSYM    DATA     BIT       B2
      000000F0H.3 SFRSYM    DATA     BIT       B3
      000000D0H.5 SFRSYM    DATA     BIT       F0
      000000F0H.4 SFRSYM    DATA     BIT       B4
      0000008FH   SFRSYM    DATA     BYTE      INT_CLKO
      000000D0H.1 SFRSYM    DATA     BIT       F1
      000000F0H.5 SFRSYM    DATA     BIT       B5
LX51 LINKER/LOCATER V4.66.93.0                                                        07/16/2024  15:06:14  PAGE 40


      000000F0H.6 SFRSYM    DATA     BIT       B6
      000000E0H.0 SFRSYM    DATA     BIT       ACC0
      000000F0H.7 SFRSYM    DATA     BIT       B7
      000000E0H.1 SFRSYM    DATA     BIT       ACC1
      000000E0H.2 SFRSYM    DATA     BIT       ACC2
      000000D0H   SFRSYM    DATA     BYTE      PSW
      000000E0H.3 SFRSYM    DATA     BIT       ACC3
      00000090H.5 SFRSYM    DATA     BIT       SPI_SCLK
      000000E0H.4 SFRSYM    DATA     BIT       ACC4
      000000D8H.0 SFRSYM    DATA     BIT       CCF0
      000000E0H.5 SFRSYM    DATA     BIT       ACC5
      000000D8H.1 SFRSYM    DATA     BIT       CCF1
      000000CFH   SFRSYM    DATA     BYTE      SPDAT
      00000094H   SFRSYM    DATA     BYTE      P0M0
      000000E0H.6 SFRSYM    DATA     BIT       ACC6

      01003F0AH   BLOCK     CODE     ---       LVL=0
      01003F0AH   LINE      CODE     ---       #88
      01003F0AH   LINE      CODE     ---       #89
      01003F0AH   LINE      CODE     ---       #90
      01003F0DH   LINE      CODE     ---       #91
      01003F10H   LINE      CODE     ---       #92
      01003F13H   LINE      CODE     ---       #93
      ---         BLOCKEND  ---      ---       LVL=0

      01000003H   BLOCK     CODE     ---       LVL=0
      01000003H   LINE      CODE     ---       #96
      01000003H   LINE      CODE     ---       #97
      01000003H   LINE      CODE     ---       #98
      0100000AH   LINE      CODE     ---       #99
      0100000CH   LINE      CODE     ---       #100
      0100000EH   LINE      CODE     ---       #101
      01000010H   LINE      CODE     ---       #102
      ---         BLOCKEND  ---      ---       LVL=0

      01000016H   BLOCK     CODE     ---       LVL=0
      00000007H   SYMBOL    DATA     BYTE      byte
      01000016H   LINE      CODE     ---       #106
      01000016H   LINE      CODE     ---       #107
      01000016H   LINE      CODE     ---       #108
      01000018H   LINE      CODE     ---       #109
      0100001DH   LINE      CODE     ---       #110
      01000020H   LINE      CODE     ---       #111
      01000022H   LINE      CODE     ---       #112
      ---         BLOCKEND  ---      ---       LVL=0

      01003A2AH   BLOCK     CODE     ---       LVL=0
      00000007H   SYMBOL    DATA     BYTE      regaddr
      00000016H   SYMBOL    DATA     ---       pBuf
      00000019H   SYMBOL    DATA     BYTE      datalen
      01003A30H   BLOCK     CODE     NEAR LAB  LVL=1
      00000006H   SYMBOL    DATA     BYTE      status
      00000005H   SYMBOL    DATA     BYTE      u8_ctr
      ---         BLOCKEND  ---      ---       LVL=1
      01003A2AH   LINE      CODE     ---       #116
      01003A30H   LINE      CODE     ---       #117
      01003A30H   LINE      CODE     ---       #119
      01003A32H   LINE      CODE     ---       #120
      01003A37H   LINE      CODE     ---       #121
      01003A3FH   LINE      CODE     ---       #122
      01003A3FH   LINE      CODE     ---       #123
      01003A54H   LINE      CODE     ---       #124
      01003A57H   LINE      CODE     ---       #125
      01003A59H   LINE      CODE     ---       #126
      01003A5BH   LINE      CODE     ---       #127
LX51 LINKER/LOCATER V4.66.93.0                                                        07/16/2024  15:06:14  PAGE 41


      ---         BLOCKEND  ---      ---       LVL=0

      01003E7DH   BLOCK     CODE     ---       LVL=0
      00000007H   SYMBOL    DATA     BYTE      regaddr
      00000006H   SYMBOL    DATA     BYTE      dat
      01003E7FH   BLOCK     CODE     NEAR LAB  LVL=1
      00000005H   SYMBOL    DATA     BYTE      status
      ---         BLOCKEND  ---      ---       LVL=1
      01003E7DH   LINE      CODE     ---       #131
      01003E7FH   LINE      CODE     ---       #132
      01003E7FH   LINE      CODE     ---       #134
      01003E81H   LINE      CODE     ---       #135
      01003E86H   LINE      CODE     ---       #136
      01003E8BH   LINE      CODE     ---       #137
      01003E8DH   LINE      CODE     ---       #138
      01003E8FH   LINE      CODE     ---       #139
      ---         BLOCKEND  ---      ---       LVL=0

      01003EDCH   BLOCK     CODE     ---       LVL=0
      00000007H   SYMBOL    DATA     BYTE      regaddr
      01003EDCH   BLOCK     CODE     NEAR LAB  LVL=1
      00000007H   SYMBOL    DATA     BYTE      reg_val
      ---         BLOCKEND  ---      ---       LVL=1
      01003EDCH   LINE      CODE     ---       #143
      01003EDCH   LINE      CODE     ---       #144
      01003EDCH   LINE      CODE     ---       #146
      01003EDEH   LINE      CODE     ---       #147
      01003EE1H   LINE      CODE     ---       #148
      01003EE6H   LINE      CODE     ---       #149
      01003EE8H   LINE      CODE     ---       #150
      01003EE8H   LINE      CODE     ---       #151
      ---         BLOCKEND  ---      ---       LVL=0

      010039F7H   BLOCK     CODE     ---       LVL=0
      00000007H   SYMBOL    DATA     BYTE      regaddr
      0000001CH   SYMBOL    DATA     ---       pBuf
      0000001FH   SYMBOL    DATA     BYTE      datlen
      010039FDH   BLOCK     CODE     NEAR LAB  LVL=1
      00000006H   SYMBOL    DATA     BYTE      status
      00000005H   SYMBOL    DATA     BYTE      u8_ctr
      ---         BLOCKEND  ---      ---       LVL=1
      010039F7H   LINE      CODE     ---       #154
      010039FDH   LINE      CODE     ---       #155
      010039FDH   LINE      CODE     ---       #157
      010039FFH   LINE      CODE     ---       #158
      01003A04H   LINE      CODE     ---       #159
      01003A0CH   LINE      CODE     ---       #160
      01003A0CH   LINE      CODE     ---       #161
      01003A20H   LINE      CODE     ---       #162
      01003A23H   LINE      CODE     ---       #163
      01003A25H   LINE      CODE     ---       #164
      01003A27H   LINE      CODE     ---       #166
      01003A29H   LINE      CODE     ---       #167
      ---         BLOCKEND  ---      ---       LVL=0

      010037C3H   BLOCK     CODE     ---       LVL=0
      010037C3H   LINE      CODE     ---       #171
      010037C3H   LINE      CODE     ---       #172
      010037C3H   LINE      CODE     ---       #173
      010037C5H   LINE      CODE     ---       #174
      010037D3H   LINE      CODE     ---       #175
      010037DAH   LINE      CODE     ---       #176
      010037E1H   LINE      CODE     ---       #177
      010037E8H   LINE      CODE     ---       #178
      010037EFH   LINE      CODE     ---       #179
LX51 LINKER/LOCATER V4.66.93.0                                                        07/16/2024  15:06:14  PAGE 42


      010037F6H   LINE      CODE     ---       #180
      010037FDH   LINE      CODE     ---       #181
      010037FFH   LINE      CODE     ---       #182
      ---         BLOCKEND  ---      ---       LVL=0

      01003BDBH   BLOCK     CODE     ---       LVL=0
      00000001H   SYMBOL    DATA     ---       buf
      01003BDBH   BLOCK     CODE     NEAR LAB  LVL=1
      00000004H   SYMBOL    DATA     BYTE      state
      ---         BLOCKEND  ---      ---       LVL=1
      01003BDBH   LINE      CODE     ---       #185
      01003BDBH   LINE      CODE     ---       #186
      01003BDBH   LINE      CODE     ---       #188
      01003BE2H   LINE      CODE     ---       #189
      01003BE9H   LINE      CODE     ---       #190
      01003BEDH   LINE      CODE     ---       #191
      01003BEDH   LINE      CODE     ---       #192
      01003BF5H   LINE      CODE     ---       #193
      01003BFCH   LINE      CODE     ---       #194
      01003BFFH   LINE      CODE     ---       #195
      01003BFFH   LINE      CODE     ---       #196
      01003C01H   LINE      CODE     ---       #197
      ---         BLOCKEND  ---      ---       LVL=0

      01003E69H   BLOCK     CODE     ---       LVL=0
      01003E69H   LINE      CODE     ---       #198
      01003E69H   LINE      CODE     ---       #199
      01003E69H   LINE      CODE     ---       #200
      01003E6BH   LINE      CODE     ---       #201
      01003E6EH   LINE      CODE     ---       #202
      01003E71H   LINE      CODE     ---       #203
      01003E74H   LINE      CODE     ---       #205
      01003E76H   LINE      CODE     ---       #206
      01003E78H   LINE      CODE     ---       #207
      01003E7AH   LINE      CODE     ---       #208
      01003E7CH   LINE      CODE     ---       #209
      ---         BLOCKEND  ---      ---       LVL=0

      01003E3AH   BLOCK     CODE     ---       LVL=0
      01003E3AH   LINE      CODE     ---       #210
      01003E3AH   LINE      CODE     ---       #211
      01003E3AH   LINE      CODE     ---       #212
      01003E48H   LINE      CODE     ---       #213
      01003E48H   LINE      CODE     ---       #214
      01003E4BH   LINE      CODE     ---       #215
      01003E4DH   LINE      CODE     ---       #216
      01003E53H   LINE      CODE     ---       #217
      01003E53H   LINE      CODE     ---       #218
      ---         BLOCKEND  ---      ---       LVL=0

      01003800H   BLOCK     CODE     ---       LVL=0
      01003800H   LINE      CODE     ---       #220
      0100381DH   LINE      CODE     ---       #222
      01003820H   LINE      CODE     ---       #223
      ---         BLOCKEND  ---      ---       LVL=0

      ---         MODULE    ---      ---       DUOJI
      01003E90H   PUBLIC    CODE     ---       dancing
      01000379H   PUBLIC    CODE     ---       part_three
      01002475H   PUBLIC    CODE     ---       part_two
      01000096H   PUBLIC    CODE     ---       part_one
      0100209FH   PUBLIC    CODE     ---       action87
      010036BBH   PUBLIC    CODE     ---       action86
      01002ED9H   PUBLIC    CODE     ---       action85
      01003D5CH   PUBLIC    CODE     ---       action84
LX51 LINKER/LOCATER V4.66.93.0                                                        07/16/2024  15:06:14  PAGE 43


      010032AAH   PUBLIC    CODE     ---       action83
      01003672H   PUBLIC    CODE     ---       action82
      01003D3FH   PUBLIC    CODE     ---       action81
      01003259H   PUBLIC    CODE     ---       action80
      01001577H   PUBLIC    CODE     ---       action79
      010022F6H   PUBLIC    CODE     ---       action78
      01002230H   PUBLIC    CODE     ---       action77
      01003629H   PUBLIC    CODE     ---       action76
      0100216AH   PUBLIC    CODE     ---       action75
      01000B47H   PUBLIC    CODE     ---       action73
      01003D22H   PUBLIC    CODE     ---       action72
      01003BB1H   PUBLIC    CODE     ---       action71
      01003D05H   PUBLIC    CODE     ---       action70
      01003C49H   PUBLIC    CODE     ---       action69
      0100149FH   PUBLIC    CODE     ---       biaozhun
      01002E83H   PUBLIC    CODE     ---       action68
      01003E54H   PUBLIC    CODE     ---       action67
      01003CE8H   PUBLIC    CODE     ---       action66
      010035E0H   PUBLIC    CODE     ---       action65
      010013C7H   PUBLIC    CODE     ---       action64
      010012EFH   PUBLIC    CODE     ---       action63
      01003C27H   PUBLIC    CODE     ---       action62
      01003349H   PUBLIC    CODE     ---       action61
      01001FD4H   PUBLIC    CODE     ---       action60
      01001F09H   PUBLIC    CODE     ---       action59
      01001E3EH   PUBLIC    CODE     ---       action58
      01001D73H   PUBLIC    CODE     ---       action57
      01001CA8H   PUBLIC    CODE     ---       action56
      01003597H   PUBLIC    CODE     ---       action55_1
      01001217H   PUBLIC    CODE     ---       action55
      0100354EH   PUBLIC    CODE     ---       action54
      01000A67H   PUBLIC    CODE     ---       action53
      0100113FH   PUBLIC    CODE     ---       action52
      01001067H   PUBLIC    CODE     ---       action51
      01003505H   PUBLIC    CODE     ---       action50
      01001BDDH   PUBLIC    CODE     ---       action49
      01000026H   PUBLIC    CODE     ---       action48
      010025DAH   PUBLIC    CODE     ---       action47
      01001B12H   PUBLIC    CODE     ---       action46
      010034BCH   PUBLIC    CODE     ---       action45
      010027BCH   PUBLIC    CODE     ---       action44
      01001A47H   PUBLIC    CODE     ---       action43
      010039C0H   PUBLIC    CODE     ---       action42
      01002725H   PUBLIC    CODE     ---       action41
      01003473H   PUBLIC    CODE     ---       action40
      01000F8FH   PUBLIC    CODE     ---       action39
      01002D79H   PUBLIC    CODE     ---       action38
      01002E2DH   PUBLIC    CODE     ---       action37
      01003B87H   PUBLIC    CODE     ---       action36
      01003208H   PUBLIC    CODE     ---       action35
      010023BCH   PUBLIC    CODE     ---       action34
      010031B7H   PUBLIC    CODE     ---       action31
      01003B5DH   PUBLIC    CODE     ---       action30
      01002ADAH   PUBLIC    CODE     ---       action29
      0100197CH   PUBLIC    CODE     ---       action28
      01002529H   PUBLIC    CODE     ---       action27
      01000987H   PUBLIC    CODE     ---       action26
      010008A7H   PUBLIC    CODE     ---       action25
      01000EB7H   PUBLIC    CODE     ---       action24_4
      010018B1H   PUBLIC    CODE     ---       action24_3
      01002DD7H   PUBLIC    CODE     ---       action24_2
      0100342AH   PUBLIC    CODE     ---       action24_1
      01003989H   PUBLIC    CODE     ---       action24
      01003952H   PUBLIC    CODE     ---       action23
      0100391BH   PUBLIC    CODE     ---       action22
LX51 LINKER/LOCATER V4.66.93.0                                                        07/16/2024  15:06:14  PAGE 44


      010038E4H   PUBLIC    CODE     ---       action21
      010038ADH   PUBLIC    CODE     ---       action20
      01003876H   PUBLIC    CODE     ---       action19
      010007C7H   PUBLIC    CODE     ---       action18
      01003B33H   PUBLIC    CODE     ---       action17
      01003B09H   PUBLIC    CODE     ---       action16
      010033E1H   PUBLIC    CODE     ---       action15
      01000DDFH   PUBLIC    CODE     ---       action14
      01000D03H   PUBLIC    CODE     ---       action13
      01000C27H   PUBLIC    CODE     ---       action12_1
      01003166H   PUBLIC    CODE     ---       action12
      01003115H   PUBLIC    CODE     ---       action11_1
      01002D1BH   PUBLIC    CODE     ---       action11
      010030C4H   PUBLIC    CODE     ---       action10_2
      01003073H   PUBLIC    CODE     ---       action10_1
      01002CBDH   PUBLIC    CODE     ---       action10
      01002C5FH   PUBLIC    CODE     ---       action9
      01002C01H   PUBLIC    CODE     ---       action8
      01002BA3H   PUBLIC    CODE     ---       action7
      01002B45H   PUBLIC    CODE     ---       action6
      010006E7H   PUBLIC    CODE     ---       action5
      010029EAH   PUBLIC    CODE     ---       action4
      01002A6FH   PUBLIC    CODE     ---       action3_4
      01003022H   PUBLIC    CODE     ---       action3_3
      01002FD1H   PUBLIC    CODE     ---       action3_2
      01002F80H   PUBLIC    CODE     ---       action3_1
      010017E6H   PUBLIC    CODE     ---       action3
      01002965H   PUBLIC    CODE     ---       ready
      0100164AH   PUBLIC    CODE     ---       action2_1
      01001719H   PUBLIC    CODE     ---       action2
      01003ADFH   PUBLIC    CODE     ---       action1_1
      01002F2FH   PUBLIC    CODE     ---       action1
      01000607H   PUBLIC    CODE     ---       start
      01003A5CH   PUBLIC    CODE     ---       action
      01002693H   PUBLIC    CODE     ---       _a
      000000D8H.2 SFRSYM    DATA     BIT       CCF2
      00000092H   SFRSYM    DATA     BYTE      P1M0
      00000093H   SFRSYM    DATA     BYTE      P0M1
      000000E0H.7 SFRSYM    DATA     BIT       ACC7
      00000096H   SFRSYM    DATA     BYTE      P2M0
      00000091H   SFRSYM    DATA     BYTE      P1M1
      00000080H   SFRSYM    DATA     BYTE      P0
      000000B2H   SFRSYM    DATA     BYTE      P3M0
      00000095H   SFRSYM    DATA     BYTE      P2M1
      00000090H   SFRSYM    DATA     BYTE      P1
      000000B4H   SFRSYM    DATA     BYTE      P4M0
      000000B1H   SFRSYM    DATA     BYTE      P3M1
      000000A0H   SFRSYM    DATA     BYTE      P2
      000000ABH   SFRSYM    DATA     BYTE      WKTCH
      000000CAH   SFRSYM    DATA     BYTE      P5M0
      000000B3H   SFRSYM    DATA     BYTE      P4M1
      000000B0H   SFRSYM    DATA     BYTE      P3
      000000B0H.4 SFRSYM    DATA     BIT       T0
      000000CCH   SFRSYM    DATA     BYTE      P6M0
      000000C9H   SFRSYM    DATA     BYTE      P5M1
      000000C0H   SFRSYM    DATA     BYTE      P4
      000000D0H.6 SFRSYM    DATA     BIT       AC
      000000B0H.5 SFRSYM    DATA     BIT       CLKOUT0
      000000B0H.5 SFRSYM    DATA     BIT       T1
      000000C6H   SFRSYM    DATA     BYTE      ISP_TRIG
      000000F6H   SFRSYM    DATA     BYTE      PWMIF
      000000E2H   SFRSYM    DATA     BYTE      P7M0
      000000CBH   SFRSYM    DATA     BYTE      P6M1
      000000C8H   SFRSYM    DATA     BYTE      P5
      000000B0H.4 SFRSYM    DATA     BIT       CLKOUT1
LX51 LINKER/LOCATER V4.66.93.0                                                        07/16/2024  15:06:14  PAGE 45


      000000A0H.4 SFRSYM    DATA     BIT       SPI_SS_2
      000000A8H.7 SFRSYM    DATA     BIT       EA
      000000E1H   SFRSYM    DATA     BYTE      P7M1
      000000E8H   SFRSYM    DATA     BYTE      P6
      000000C8H.4 SFRSYM    DATA     BIT       SPI_SS_3
      00000090H.4 SFRSYM    DATA     BIT       SPI_MISO
      00000090H.3 SFRSYM    DATA     BIT       SPI_MOSI
      00000090H.1 SFRSYM    DATA     BIT       CCP0
      000000AAH   SFRSYM    DATA     BYTE      WKTCL
      000000F8H   SFRSYM    DATA     BYTE      P7
      00000090H.0 SFRSYM    DATA     BIT       CCP1
      000000CEH   SFRSYM    DATA     BYTE      SPCTL
      000000B0H.7 SFRSYM    DATA     BIT       CCP2
      000000D8H.7 SFRSYM    DATA     BIT       CF
      000000F5H   SFRSYM    DATA     BYTE      PWMCR
      000000F9H   SFRSYM    DATA     BYTE      CH
      000000A2H   SFRSYM    DATA     BYTE      P_SW1
      000000BAH   SFRSYM    DATA     BYTE      P_SW2
      000000A0H.1 SFRSYM    DATA     BIT       SPI_SCLK_2
      000000A8H.5 SFRSYM    DATA     BIT       EADC
      000000A8H   SFRSYM    DATA     BYTE      IE
      000000C0H.3 SFRSYM    DATA     BIT       SPI_SCLK_3
      000000E9H   SFRSYM    DATA     BYTE      CL
      000000C5H   SFRSYM    DATA     BYTE      IAP_CMD
      000000FAH   SFRSYM    DATA     BYTE      CCAP0H
      000000FBH   SFRSYM    DATA     BYTE      CCAP1H
      000000FCH   SFRSYM    DATA     BYTE      CCAP2H
      000000B6H   SFRSYM    DATA     BYTE      IPH2
      000000BDH   SFRSYM    DATA     BYTE      ADC_RES
      000000EAH   SFRSYM    DATA     BYTE      CCAP0L
      000000D8H.6 SFRSYM    DATA     BIT       CR
      000000B0H.7 SFRSYM    DATA     BIT       RD
      000000F7H   SFRSYM    DATA     BYTE      PWMFDCR
      000000EBH   SFRSYM    DATA     BYTE      CCAP1L
      000000DAH   SFRSYM    DATA     BYTE      CCAPM0
      000000ECH   SFRSYM    DATA     BYTE      CCAP2L
      000000DBH   SFRSYM    DATA     BYTE      CCAPM1
      000000DCH   SFRSYM    DATA     BYTE      CCAPM2
      000000A8H.4 SFRSYM    DATA     BIT       ES
      000000A0H.2 SFRSYM    DATA     BIT       SPI_MISO_2
      000000A0H.3 SFRSYM    DATA     BIT       SPI_MOSI_2
      000000B8H.5 SFRSYM    DATA     BIT       PADC
      000000B8H   SFRSYM    DATA     BYTE      IP
      000000C0H.1 SFRSYM    DATA     BIT       SPI_MISO_3
      000000C0H.0 SFRSYM    DATA     BIT       SPI_MOSI_3
      00000098H.0 SFRSYM    DATA     BIT       RI
      000000B0H.2 SFRSYM    DATA     BIT       INT0
      000000D0H.7 SFRSYM    DATA     BIT       CY
      000000B0H.3 SFRSYM    DATA     BIT       INT1
      00000098H.1 SFRSYM    DATA     BIT       TI
      00000097H   SFRSYM    DATA     BYTE      CLK_DIV
      000000C3H   SFRSYM    DATA     BYTE      IAP_ADDRH
      00000090H.0 SFRSYM    DATA     BIT       RXD2
      000000C5H   SFRSYM    DATA     BYTE      ISP_CMD
      00000090H.1 SFRSYM    DATA     BIT       TXD2
      000000B8H.4 SFRSYM    DATA     BIT       PS
      00000081H   SFRSYM    DATA     BYTE      SP
      000000D9H   SFRSYM    DATA     BYTE      CMOD
      000000D8H   SFRSYM    DATA     BYTE      CCON
      000000C4H   SFRSYM    DATA     BYTE      IAP_ADDRL
      000000B8H.7 SFRSYM    DATA     BIT       PPCA
      000000D0H.2 SFRSYM    DATA     BIT       OV
      000000E6H   SFRSYM    DATA     BYTE      CMPCR1
      000000B0H.6 SFRSYM    DATA     BIT       WR
      000000E7H   SFRSYM    DATA     BYTE      CMPCR2
LX51 LINKER/LOCATER V4.66.93.0                                                        07/16/2024  15:06:14  PAGE 46


      000000A8H.6 SFRSYM    DATA     BIT       ELVD
      00000080H.0 SFRSYM    DATA     BIT       P00
      000000BCH   SFRSYM    DATA     BYTE      ADC_CONTR
      00000099H   SFRSYM    DATA     BYTE      SBUF
      00000087H   SFRSYM    DATA     BYTE      PCON
      00000090H.0 SFRSYM    DATA     BIT       P10
      00000080H.1 SFRSYM    DATA     BIT       P01
      000000C3H   SFRSYM    DATA     BYTE      ISP_ADDRH
      000000A0H.0 SFRSYM    DATA     BIT       P20
      00000090H.1 SFRSYM    DATA     BIT       P11
      00000080H.2 SFRSYM    DATA     BIT       P02
      000000B0H.0 SFRSYM    DATA     BIT       P30
      000000A0H.1 SFRSYM    DATA     BIT       P21
      00000090H.2 SFRSYM    DATA     BIT       P12
      00000080H.3 SFRSYM    DATA     BIT       P03
      00000098H   SFRSYM    DATA     BYTE      SCON
      0000008FH   SFRSYM    DATA     BYTE      WAKE_CLKO
      000000C0H.0 SFRSYM    DATA     BIT       P40
      000000B0H.1 SFRSYM    DATA     BIT       P31
      000000A0H.2 SFRSYM    DATA     BIT       P22
      00000090H.3 SFRSYM    DATA     BIT       P13
      00000080H.4 SFRSYM    DATA     BIT       P04
      00000089H   SFRSYM    DATA     BYTE      TMOD
      00000088H   SFRSYM    DATA     BYTE      TCON
      000000C8H.0 SFRSYM    DATA     BIT       P50
      000000C0H.1 SFRSYM    DATA     BIT       P41
      000000B0H.2 SFRSYM    DATA     BIT       P32
      000000A0H.3 SFRSYM    DATA     BIT       P23
      00000090H.4 SFRSYM    DATA     BIT       P14
      00000080H.5 SFRSYM    DATA     BIT       P05
      000000C4H   SFRSYM    DATA     BYTE      ISP_ADDRL
      000000E8H.0 SFRSYM    DATA     BIT       P60
      000000C8H.1 SFRSYM    DATA     BIT       P51
      000000C0H.2 SFRSYM    DATA     BIT       P42
      000000B0H.3 SFRSYM    DATA     BIT       P33
      000000A0H.4 SFRSYM    DATA     BIT       P24
      00000090H.5 SFRSYM    DATA     BIT       P15
      00000080H.6 SFRSYM    DATA     BIT       P06
      000000B8H.6 SFRSYM    DATA     BIT       PLVD
      000000F8H.0 SFRSYM    DATA     BIT       P70
      000000E8H.1 SFRSYM    DATA     BIT       P61
      000000C8H.2 SFRSYM    DATA     BIT       P52
      000000C0H.3 SFRSYM    DATA     BIT       P43
      000000B0H.4 SFRSYM    DATA     BIT       P34
      000000A0H.5 SFRSYM    DATA     BIT       P25
      00000090H.6 SFRSYM    DATA     BIT       P16
      00000080H.7 SFRSYM    DATA     BIT       P07
      000000F8H.1 SFRSYM    DATA     BIT       P71
      000000E8H.2 SFRSYM    DATA     BIT       P62
      000000C8H.3 SFRSYM    DATA     BIT       P53
      000000C0H.4 SFRSYM    DATA     BIT       P44
      000000B0H.5 SFRSYM    DATA     BIT       P35
      000000A0H.6 SFRSYM    DATA     BIT       P26
      00000090H.7 SFRSYM    DATA     BIT       P17
      000000F8H.2 SFRSYM    DATA     BIT       P72
      000000E8H.3 SFRSYM    DATA     BIT       P63
      000000C8H.4 SFRSYM    DATA     BIT       P54
      000000C0H.5 SFRSYM    DATA     BIT       P45
      000000B0H.6 SFRSYM    DATA     BIT       P36
      000000A0H.7 SFRSYM    DATA     BIT       P27
      000000F8H.3 SFRSYM    DATA     BIT       P73
      000000E8H.4 SFRSYM    DATA     BIT       P64
      000000C8H.5 SFRSYM    DATA     BIT       P55
      000000C0H.6 SFRSYM    DATA     BIT       P46
      000000B0H.7 SFRSYM    DATA     BIT       P37
LX51 LINKER/LOCATER V4.66.93.0                                                        07/16/2024  15:06:14  PAGE 47


      000000F8H.4 SFRSYM    DATA     BIT       P74
      000000E8H.5 SFRSYM    DATA     BIT       P65
      000000C8H.6 SFRSYM    DATA     BIT       P56
      000000C0H.7 SFRSYM    DATA     BIT       P47
      000000F8H.5 SFRSYM    DATA     BIT       P75
      000000E8H.6 SFRSYM    DATA     BIT       P66
      000000C8H.7 SFRSYM    DATA     BIT       P57
      000000F8H.6 SFRSYM    DATA     BIT       P76
      000000E8H.7 SFRSYM    DATA     BIT       P67
      00000088H.1 SFRSYM    DATA     BIT       IE0
      000000A1H   SFRSYM    DATA     BYTE      BUS_SPEED
      000000F8H.7 SFRSYM    DATA     BIT       P77
      00000088H.3 SFRSYM    DATA     BIT       IE1
      000000AFH   SFRSYM    DATA     BYTE      IE2
      0000008EH   SFRSYM    DATA     BYTE      AUXR
      000000F0H   SFRSYM    DATA     BYTE      B
      000000C7H   SFRSYM    DATA     BYTE      IAP_CONTR
      00000080H.4 SFRSYM    DATA     BIT       OE1
      00000080H.5 SFRSYM    DATA     BIT       OE2
      000000F1H   SFRSYM    DATA     BYTE      PWMCFG
      000000E0H   SFRSYM    DATA     BYTE      ACC
      000000A8H.1 SFRSYM    DATA     BIT       ET0
      00000088H.5 SFRSYM    DATA     BIT       TF0
      000000A8H.3 SFRSYM    DATA     BIT       ET1
      0000008CH   SFRSYM    DATA     BYTE      RL_TH0
      00000088H.7 SFRSYM    DATA     BIT       TF1
      000000B5H   SFRSYM    DATA     BYTE      IP2
      0000008DH   SFRSYM    DATA     BYTE      RL_TH1
      00000098H.2 SFRSYM    DATA     BIT       RB8
      0000008CH   SFRSYM    DATA     BYTE      TH0
      000000D6H   SFRSYM    DATA     BYTE      RL_T2H
      0000008DH   SFRSYM    DATA     BYTE      TH1
      00000088H.0 SFRSYM    DATA     BIT       IT0
      000000A8H.0 SFRSYM    DATA     BIT       EX0
      000000D4H   SFRSYM    DATA     BYTE      RL_T3H
      000000D6H   SFRSYM    DATA     BYTE      TH2
      00000098H.3 SFRSYM    DATA     BIT       TB8
      000000D6H   SFRSYM    DATA     BYTE      T2H
      00000088H.2 SFRSYM    DATA     BIT       IT1
      000000A8H.2 SFRSYM    DATA     BIT       EX1
      000000D2H   SFRSYM    DATA     BYTE      RL_T4H
      000000D4H   SFRSYM    DATA     BYTE      TH3
      0000008AH   SFRSYM    DATA     BYTE      RL_TL0
      000000D4H   SFRSYM    DATA     BYTE      T3H
      000000D0H.0 SFRSYM    DATA     BIT       P
      000000D2H   SFRSYM    DATA     BYTE      TH4
      0000008BH   SFRSYM    DATA     BYTE      RL_TL1
      00000098H.7 SFRSYM    DATA     BIT       SM0
      000000D2H   SFRSYM    DATA     BYTE      T4H
      0000008AH   SFRSYM    DATA     BYTE      TL0
      000000D7H   SFRSYM    DATA     BYTE      RL_T2L
      00000098H.6 SFRSYM    DATA     BIT       SM1
      0000008BH   SFRSYM    DATA     BYTE      TL1
      000000D5H   SFRSYM    DATA     BYTE      RL_T3L
      000000D7H   SFRSYM    DATA     BYTE      TL2
      00000098H.5 SFRSYM    DATA     BIT       SM2
      000000D7H   SFRSYM    DATA     BYTE      T2L
      000000D3H   SFRSYM    DATA     BYTE      RL_T4L
      000000D5H   SFRSYM    DATA     BYTE      TL3
      000000D5H   SFRSYM    DATA     BYTE      T3L
      000000D3H   SFRSYM    DATA     BYTE      TL4
      000000D3H   SFRSYM    DATA     BYTE      T4L
      000000B8H.1 SFRSYM    DATA     BIT       PT0
      000000C7H   SFRSYM    DATA     BYTE      ISP_CONTR
      000000B8H.3 SFRSYM    DATA     BIT       PT1
LX51 LINKER/LOCATER V4.66.93.0                                                        07/16/2024  15:06:14  PAGE 48


      000000D0H.3 SFRSYM    DATA     BIT       RS0
      000000C2H   SFRSYM    DATA     BYTE      IAP_DATA
      00000088H.4 SFRSYM    DATA     BIT       TR0
      000000D0H.4 SFRSYM    DATA     BIT       RS1
      00000088H.6 SFRSYM    DATA     BIT       TR1
      000000C1H   SFRSYM    DATA     BYTE      WDT_CONTR
      000000B8H.0 SFRSYM    DATA     BIT       PX0
      000000B8H.2 SFRSYM    DATA     BIT       PX1
      000000F2H   SFRSYM    DATA     BYTE      PCA_PWM0
      000000F3H   SFRSYM    DATA     BYTE      PCA_PWM1
      000000F4H   SFRSYM    DATA     BYTE      PCA_PWM2
      0000009DH   SFRSYM    DATA     BYTE      P1ASF
      00000083H   SFRSYM    DATA     BYTE      DPH
      000000D1H   SFRSYM    DATA     BYTE      T3T4M
      000000D1H   SFRSYM    DATA     BYTE      T4T3M
      000000BEH   SFRSYM    DATA     BYTE      ADC_RESL
      00000082H   SFRSYM    DATA     BYTE      DPL
      000000B7H   SFRSYM    DATA     BYTE      IPH
      000000CDH   SFRSYM    DATA     BYTE      SPSTAT
      0000009BH   SFRSYM    DATA     BYTE      S2BUF
      00000097H   SFRSYM    DATA     BYTE      PCON2
      000000ADH   SFRSYM    DATA     BYTE      S3BUF
      00000085H   SFRSYM    DATA     BYTE      S4BUF
      00000098H.4 SFRSYM    DATA     BIT       REN
      0000009AH   SFRSYM    DATA     BYTE      S2CON
      000000ACH   SFRSYM    DATA     BYTE      S3CON
      000000C2H   SFRSYM    DATA     BYTE      ISP_DATA
      00000084H   SFRSYM    DATA     BYTE      S4CON
      000000B9H   SFRSYM    DATA     BYTE      SADEN
      000000B0H.0 SFRSYM    DATA     BIT       RXD
      000000A9H   SFRSYM    DATA     BYTE      SADDR
      000000B0H.1 SFRSYM    DATA     BIT       TXD
      000000F0H.0 SFRSYM    DATA     BIT       B0
      000000C6H   SFRSYM    DATA     BYTE      IAP_TRIG
      000000A2H   SFRSYM    DATA     BYTE      AUXR1
      000000F0H.1 SFRSYM    DATA     BIT       B1
      00000090H.2 SFRSYM    DATA     BIT       SPI_SS
      0000008FH   SFRSYM    DATA     BYTE      AUXR2
      000000F0H.2 SFRSYM    DATA     BIT       B2
      000000F0H.3 SFRSYM    DATA     BIT       B3
      000000D0H.5 SFRSYM    DATA     BIT       F0
      000000F0H.4 SFRSYM    DATA     BIT       B4
      0000008FH   SFRSYM    DATA     BYTE      INT_CLKO
      000000D0H.1 SFRSYM    DATA     BIT       F1
      000000F0H.5 SFRSYM    DATA     BIT       B5
      000000F0H.6 SFRSYM    DATA     BIT       B6
      000000E0H.0 SFRSYM    DATA     BIT       ACC0
      000000F0H.7 SFRSYM    DATA     BIT       B7
      000000E0H.1 SFRSYM    DATA     BIT       ACC1
      000000E0H.2 SFRSYM    DATA     BIT       ACC2
      000000D0H   SFRSYM    DATA     BYTE      PSW
      000000E0H.3 SFRSYM    DATA     BIT       ACC3
      00000090H.5 SFRSYM    DATA     BIT       SPI_SCLK
      000000E0H.4 SFRSYM    DATA     BIT       ACC4
      000000D8H.0 SFRSYM    DATA     BIT       CCF0
      000000E0H.5 SFRSYM    DATA     BIT       ACC5
      000000D8H.1 SFRSYM    DATA     BIT       CCF1
      000000CFH   SFRSYM    DATA     BYTE      SPDAT
      00000094H   SFRSYM    DATA     BYTE      P0M0
      000000E0H.6 SFRSYM    DATA     BIT       ACC6

      0100268BH   BLOCK     CODE     ---       LVL=0
      ---         BLOCKEND  ---      ---       LVL=0

      01002693H   BLOCK     CODE     ---       LVL=0
LX51 LINKER/LOCATER V4.66.93.0                                                        07/16/2024  15:06:14  PAGE 49


      00000015H   SYMBOL    DATA     BYTE      ID
      00000016H   SYMBOL    DATA     WORD      speed
      00000018H   SYMBOL    DATA     WORD      position
      0000001AH   SYMBOL    DATA     BYTE      temp_sum
      0100269DH   BLOCK     CODE     NEAR LAB  LVL=1
      0000001AH   SYMBOL    DATA     BYTE      temp_sum
      ---         BLOCKEND  ---      ---       LVL=1
      01002693H   LINE      CODE     ---       #7
      0100269DH   LINE      CODE     ---       #8
      0100269DH   LINE      CODE     ---       #9
      010026A0H   LINE      CODE     ---       #10
      010026ABH   LINE      CODE     ---       #11
      010026B1H   LINE      CODE     ---       #12
      010026BCH   LINE      CODE     ---       #13
      010026C2H   LINE      CODE     ---       #14
      010026D4H   LINE      CODE     ---       #15
      010026D7H   LINE      CODE     ---       #16
      010026DAH   LINE      CODE     ---       #17
      010026DCH   LINE      CODE     ---       #18
      010026DEH   LINE      CODE     ---       #19
      010026E3H   LINE      CODE     ---       #20
      010026E8H   LINE      CODE     ---       #21
      010026EDH   LINE      CODE     ---       #22
      010026F2H   LINE      CODE     ---       #23
      010026F7H   LINE      CODE     ---       #24
      010026FCH   LINE      CODE     ---       #25
      01002701H   LINE      CODE     ---       #26
      01002707H   LINE      CODE     ---       #27
      0100270CH   LINE      CODE     ---       #28
      01002712H   LINE      CODE     ---       #29
      01002717H   LINE      CODE     ---       #30
      0100271AH   LINE      CODE     ---       #31
      0100271CH   LINE      CODE     ---       #32
      0100271EH   LINE      CODE     ---       #33
      ---         BLOCKEND  ---      ---       LVL=0

      01003A5CH   BLOCK     CODE     ---       LVL=0
      01003A5CH   LINE      CODE     ---       #35
      01003A5CH   LINE      CODE     ---       #36
      01003A5CH   LINE      CODE     ---       #37
      01003A5FH   LINE      CODE     ---       #38
      01003A61H   LINE      CODE     ---       #39
      01003A63H   LINE      CODE     ---       #40
      01003A68H   LINE      CODE     ---       #41
      01003A6DH   LINE      CODE     ---       #42
      01003A72H   LINE      CODE     ---       #43
      01003A77H   LINE      CODE     ---       #44
      01003A7CH   LINE      CODE     ---       #45
      01003A81H   LINE      CODE     ---       #46
      01003A84H   LINE      CODE     ---       #47
      01003A86H   LINE      CODE     ---       #48
      01003A88H   LINE      CODE     ---       #49
      ---         BLOCKEND  ---      ---       LVL=0

      01000607H   BLOCK     CODE     ---       LVL=0
      01000607H   LINE      CODE     ---       #52
      01000607H   LINE      CODE     ---       #53
      01000607H   LINE      CODE     ---       #54
      0100063BH   LINE      CODE     ---       #55
      0100066FH   LINE      CODE     ---       #56
      010006A3H   LINE      CODE     ---       #57
      010006D7H   LINE      CODE     ---       #58
      ---         BLOCKEND  ---      ---       LVL=0

      01002F2FH   BLOCK     CODE     ---       LVL=0
LX51 LINKER/LOCATER V4.66.93.0                                                        07/16/2024  15:06:14  PAGE 50


      01002F2FH   LINE      CODE     ---       #61
      01002F2FH   LINE      CODE     ---       #62
      01002F2FH   LINE      CODE     ---       #63
      01002F56H   LINE      CODE     ---       #64
      ---         BLOCKEND  ---      ---       LVL=0

      01003ADFH   BLOCK     CODE     ---       LVL=0
      01003ADFH   LINE      CODE     ---       #66
      01003ADFH   LINE      CODE     ---       #67
      01003ADFH   LINE      CODE     ---       #68
      ---         BLOCKEND  ---      ---       LVL=0

      01001719H   BLOCK     CODE     ---       LVL=0
      01001719H   LINE      CODE     ---       #71
      01001719H   LINE      CODE     ---       #72
      01001719H   LINE      CODE     ---       #73
      01001740H   LINE      CODE     ---       #74
      01001774H   LINE      CODE     ---       #75
      010017A2H   LINE      CODE     ---       #76
      010017D6H   LINE      CODE     ---       #77
      ---         BLOCKEND  ---      ---       LVL=0

      0100164AH   BLOCK     CODE     ---       LVL=0
      0100164AH   LINE      CODE     ---       #80
      0100164AH   LINE      CODE     ---       #81
      0100164AH   LINE      CODE     ---       #82
      01001671H   LINE      CODE     ---       #83
      010016A5H   LINE      CODE     ---       #84
      010016D5H   LINE      CODE     ---       #85
      01001709H   LINE      CODE     ---       #86
      ---         BLOCKEND  ---      ---       LVL=0

      01002965H   BLOCK     CODE     ---       LVL=0
      01002965H   LINE      CODE     ---       #88
      01002965H   LINE      CODE     ---       #89
      01002965H   LINE      CODE     ---       #90
      0100298CH   LINE      CODE     ---       #91
      010029C0H   LINE      CODE     ---       #92
      ---         BLOCKEND  ---      ---       LVL=0

      010017E6H   BLOCK     CODE     ---       LVL=0
      010017E6H   LINE      CODE     ---       #94
      010017E6H   LINE      CODE     ---       #95
      010017E6H   LINE      CODE     ---       #96
      0100181AH   LINE      CODE     ---       #97
      0100184EH   LINE      CODE     ---       #98
      0100187AH   LINE      CODE     ---       #99
      ---         BLOCKEND  ---      ---       LVL=0

      01002F80H   BLOCK     CODE     ---       LVL=0
      01002F80H   LINE      CODE     ---       #101
      01002F80H   LINE      CODE     ---       #102
      01002F80H   LINE      CODE     ---       #103
      01002FA7H   LINE      CODE     ---       #104
      ---         BLOCKEND  ---      ---       LVL=0

      01002FD1H   BLOCK     CODE     ---       LVL=0
      01002FD1H   LINE      CODE     ---       #106
      01002FD1H   LINE      CODE     ---       #107
      01002FD1H   LINE      CODE     ---       #108
      01002FF8H   LINE      CODE     ---       #109
      ---         BLOCKEND  ---      ---       LVL=0

      01003022H   BLOCK     CODE     ---       LVL=0
      01003022H   LINE      CODE     ---       #111
LX51 LINKER/LOCATER V4.66.93.0                                                        07/16/2024  15:06:14  PAGE 51


      01003022H   LINE      CODE     ---       #112
      01003022H   LINE      CODE     ---       #113
      01003049H   LINE      CODE     ---       #114
      ---         BLOCKEND  ---      ---       LVL=0

      01002A6FH   BLOCK     CODE     ---       LVL=0
      01002A6FH   LINE      CODE     ---       #116
      01002A6FH   LINE      CODE     ---       #117
      01002A6FH   LINE      CODE     ---       #118
      01002AA3H   LINE      CODE     ---       #119
      ---         BLOCKEND  ---      ---       LVL=0

      010029EAH   BLOCK     CODE     ---       LVL=0
      010029EAH   LINE      CODE     ---       #121
      010029EAH   LINE      CODE     ---       #122
      010029EAH   LINE      CODE     ---       #123
      01002A11H   LINE      CODE     ---       #124
      01002A45H   LINE      CODE     ---       #125
      ---         BLOCKEND  ---      ---       LVL=0

      010006E7H   BLOCK     CODE     ---       LVL=0
      010006E7H   LINE      CODE     ---       #127
      010006E7H   LINE      CODE     ---       #128
      010006E7H   LINE      CODE     ---       #129
      0100071BH   LINE      CODE     ---       #130
      0100074FH   LINE      CODE     ---       #131
      01000783H   LINE      CODE     ---       #132
      010007B7H   LINE      CODE     ---       #133
      ---         BLOCKEND  ---      ---       LVL=0

      01002B45H   BLOCK     CODE     ---       LVL=0
      01002B45H   LINE      CODE     ---       #135
      01002B45H   LINE      CODE     ---       #136
      01002B45H   LINE      CODE     ---       #137
      01002B79H   LINE      CODE     ---       #138
      ---         BLOCKEND  ---      ---       LVL=0

      01002BA3H   BLOCK     CODE     ---       LVL=0
      01002BA3H   LINE      CODE     ---       #140
      01002BA3H   LINE      CODE     ---       #141
      01002BA3H   LINE      CODE     ---       #142
      01002BD7H   LINE      CODE     ---       #143
      ---         BLOCKEND  ---      ---       LVL=0

      01002C01H   BLOCK     CODE     ---       LVL=0
      01002C01H   LINE      CODE     ---       #145
      01002C01H   LINE      CODE     ---       #146
      01002C01H   LINE      CODE     ---       #147
      01002C35H   LINE      CODE     ---       #148
      ---         BLOCKEND  ---      ---       LVL=0

      01002C5FH   BLOCK     CODE     ---       LVL=0
      01002C5FH   LINE      CODE     ---       #150
      01002C5FH   LINE      CODE     ---       #151
      01002C5FH   LINE      CODE     ---       #152
      01002C93H   LINE      CODE     ---       #153
      ---         BLOCKEND  ---      ---       LVL=0

      01002CBDH   BLOCK     CODE     ---       LVL=0
      01002CBDH   LINE      CODE     ---       #155
      01002CBDH   LINE      CODE     ---       #156
      01002CBDH   LINE      CODE     ---       #157
      01002CF1H   LINE      CODE     ---       #158
      ---         BLOCKEND  ---      ---       LVL=0

LX51 LINKER/LOCATER V4.66.93.0                                                        07/16/2024  15:06:14  PAGE 52


      01003073H   BLOCK     CODE     ---       LVL=0
      01003073H   LINE      CODE     ---       #160
      01003073H   LINE      CODE     ---       #161
      01003073H   LINE      CODE     ---       #162
      0100309AH   LINE      CODE     ---       #163
      ---         BLOCKEND  ---      ---       LVL=0

      010030C4H   BLOCK     CODE     ---       LVL=0
      010030C4H   LINE      CODE     ---       #165
      010030C4H   LINE      CODE     ---       #166
      010030C4H   LINE      CODE     ---       #167
      010030EBH   LINE      CODE     ---       #168
      ---         BLOCKEND  ---      ---       LVL=0

      01002D1BH   BLOCK     CODE     ---       LVL=0
      01002D1BH   LINE      CODE     ---       #170
      01002D1BH   LINE      CODE     ---       #171
      01002D1BH   LINE      CODE     ---       #172
      01002D4FH   LINE      CODE     ---       #173
      ---         BLOCKEND  ---      ---       LVL=0

      01003115H   BLOCK     CODE     ---       LVL=0
      01003115H   LINE      CODE     ---       #175
      01003115H   LINE      CODE     ---       #176
      01003115H   LINE      CODE     ---       #177
      0100313CH   LINE      CODE     ---       #178
      ---         BLOCKEND  ---      ---       LVL=0

      01003166H   BLOCK     CODE     ---       LVL=0
      01003166H   LINE      CODE     ---       #180
      01003166H   LINE      CODE     ---       #181
      01003166H   LINE      CODE     ---       #182
      0100318DH   LINE      CODE     ---       #183
      ---         BLOCKEND  ---      ---       LVL=0

      01000C27H   BLOCK     CODE     ---       LVL=0
      01000C27H   LINE      CODE     ---       #185
      01000C27H   LINE      CODE     ---       #186
      01000C27H   LINE      CODE     ---       #187
      01000C5BH   LINE      CODE     ---       #188
      01000C8FH   LINE      CODE     ---       #189
      01000CBFH   LINE      CODE     ---       #190
      01000CF3H   LINE      CODE     ---       #191
      ---         BLOCKEND  ---      ---       LVL=0

      01000D03H   BLOCK     CODE     ---       LVL=0
      01000D03H   LINE      CODE     ---       #194
      01000D03H   LINE      CODE     ---       #195
      01000D03H   LINE      CODE     ---       #196
      01000D37H   LINE      CODE     ---       #197
      01000D6BH   LINE      CODE     ---       #198
      01000D9BH   LINE      CODE     ---       #199
      01000DCFH   LINE      CODE     ---       #200
      ---         BLOCKEND  ---      ---       LVL=0

      01000DDFH   BLOCK     CODE     ---       LVL=0
      01000DDFH   LINE      CODE     ---       #203
      01000DDFH   LINE      CODE     ---       #204
      01000DDFH   LINE      CODE     ---       #205
      01000E13H   LINE      CODE     ---       #206
      01000E47H   LINE      CODE     ---       #207
      01000E73H   LINE      CODE     ---       #208
      01000EA7H   LINE      CODE     ---       #209
      ---         BLOCKEND  ---      ---       LVL=0

LX51 LINKER/LOCATER V4.66.93.0                                                        07/16/2024  15:06:14  PAGE 53


      010033E1H   BLOCK     CODE     ---       LVL=0
      010033E1H   LINE      CODE     ---       #211
      010033E1H   LINE      CODE     ---       #212
      010033E1H   LINE      CODE     ---       #213
      01003400H   LINE      CODE     ---       #214
      ---         BLOCKEND  ---      ---       LVL=0

      01003B09H   BLOCK     CODE     ---       LVL=0
      01003B09H   LINE      CODE     ---       #216
      01003B09H   LINE      CODE     ---       #217
      01003B09H   LINE      CODE     ---       #218
      ---         BLOCKEND  ---      ---       LVL=0

      01003B33H   BLOCK     CODE     ---       LVL=0
      01003B33H   LINE      CODE     ---       #220
      01003B33H   LINE      CODE     ---       #221
      01003B33H   LINE      CODE     ---       #222
      ---         BLOCKEND  ---      ---       LVL=0

      010007C7H   BLOCK     CODE     ---       LVL=0
      010007C7H   LINE      CODE     ---       #224
      010007C7H   LINE      CODE     ---       #225
      010007C7H   LINE      CODE     ---       #226
      010007FBH   LINE      CODE     ---       #227
      0100082FH   LINE      CODE     ---       #228
      01000863H   LINE      CODE     ---       #229
      01000897H   LINE      CODE     ---       #230
      ---         BLOCKEND  ---      ---       LVL=0

      01003876H   BLOCK     CODE     ---       LVL=0
      01003876H   LINE      CODE     ---       #232
      01003876H   LINE      CODE     ---       #233
      01003876H   LINE      CODE     ---       #234
      0100389DH   LINE      CODE     ---       #235
      ---         BLOCKEND  ---      ---       LVL=0

      010038ADH   BLOCK     CODE     ---       LVL=0
      010038ADH   LINE      CODE     ---       #237
      010038ADH   LINE      CODE     ---       #238
      010038ADH   LINE      CODE     ---       #239
      010038D4H   LINE      CODE     ---       #240
      ---         BLOCKEND  ---      ---       LVL=0

      010038E4H   BLOCK     CODE     ---       LVL=0
      010038E4H   LINE      CODE     ---       #243
      010038E4H   LINE      CODE     ---       #244
      010038E4H   LINE      CODE     ---       #245
      0100390BH   LINE      CODE     ---       #246
      ---         BLOCKEND  ---      ---       LVL=0

      0100391BH   BLOCK     CODE     ---       LVL=0
      0100391BH   LINE      CODE     ---       #248
      0100391BH   LINE      CODE     ---       #249
      0100391BH   LINE      CODE     ---       #250
      01003942H   LINE      CODE     ---       #251
      ---         BLOCKEND  ---      ---       LVL=0

      01003952H   BLOCK     CODE     ---       LVL=0
      01003952H   LINE      CODE     ---       #253
      01003952H   LINE      CODE     ---       #254
      01003952H   LINE      CODE     ---       #255
      01003979H   LINE      CODE     ---       #256
      ---         BLOCKEND  ---      ---       LVL=0

      01003989H   BLOCK     CODE     ---       LVL=0
LX51 LINKER/LOCATER V4.66.93.0                                                        07/16/2024  15:06:14  PAGE 54


      01003989H   LINE      CODE     ---       #258
      01003989H   LINE      CODE     ---       #259
      01003989H   LINE      CODE     ---       #260
      010039B0H   LINE      CODE     ---       #261
      ---         BLOCKEND  ---      ---       LVL=0

      0100342AH   BLOCK     CODE     ---       LVL=0
      0100342AH   LINE      CODE     ---       #263
      0100342AH   LINE      CODE     ---       #264
      0100342AH   LINE      CODE     ---       #265
      01003449H   LINE      CODE     ---       #266
      ---         BLOCKEND  ---      ---       LVL=0

      01002DD7H   BLOCK     CODE     ---       LVL=0
      01002DD7H   LINE      CODE     ---       #268
      01002DD7H   LINE      CODE     ---       #269
      01002DD7H   LINE      CODE     ---       #270
      01002E0BH   LINE      CODE     ---       #271
      ---         BLOCKEND  ---      ---       LVL=0

      010018B1H   BLOCK     CODE     ---       LVL=0
      010018B1H   LINE      CODE     ---       #273
      010018B1H   LINE      CODE     ---       #274
      010018B1H   LINE      CODE     ---       #275
      010018D8H   LINE      CODE     ---       #276
      0100190CH   LINE      CODE     ---       #277
      01001938H   LINE      CODE     ---       #278
      0100196CH   LINE      CODE     ---       #279
      ---         BLOCKEND  ---      ---       LVL=0

      01000EB7H   BLOCK     CODE     ---       LVL=0
      01000EB7H   LINE      CODE     ---       #281
      01000EB7H   LINE      CODE     ---       #282
      01000EB7H   LINE      CODE     ---       #283
      01000EEBH   LINE      CODE     ---       #284
      01000F1FH   LINE      CODE     ---       #285
      01000F4BH   LINE      CODE     ---       #286
      01000F7FH   LINE      CODE     ---       #287
      ---         BLOCKEND  ---      ---       LVL=0

      010008A7H   BLOCK     CODE     ---       LVL=0
      010008A7H   LINE      CODE     ---       #289
      010008A7H   LINE      CODE     ---       #290
      010008A7H   LINE      CODE     ---       #291
      010008DBH   LINE      CODE     ---       #292
      0100090FH   LINE      CODE     ---       #293
      01000943H   LINE      CODE     ---       #294
      01000977H   LINE      CODE     ---       #295
      ---         BLOCKEND  ---      ---       LVL=0

      01000987H   BLOCK     CODE     ---       LVL=0
      01000987H   LINE      CODE     ---       #297
      01000987H   LINE      CODE     ---       #298
      01000987H   LINE      CODE     ---       #299
      010009BBH   LINE      CODE     ---       #300
      010009EFH   LINE      CODE     ---       #301
      01000A23H   LINE      CODE     ---       #302
      01000A57H   LINE      CODE     ---       #303
      ---         BLOCKEND  ---      ---       LVL=0

      01002529H   BLOCK     CODE     ---       LVL=0
      01002529H   LINE      CODE     ---       #305
      01002529H   LINE      CODE     ---       #306
      01002529H   LINE      CODE     ---       #307
      0100255DH   LINE      CODE     ---       #308
LX51 LINKER/LOCATER V4.66.93.0                                                        07/16/2024  15:06:14  PAGE 55


      01002591H   LINE      CODE     ---       #309
      010025B0H   LINE      CODE     ---       #310
      ---         BLOCKEND  ---      ---       LVL=0

      0100197CH   BLOCK     CODE     ---       LVL=0
      0100197CH   LINE      CODE     ---       #312
      0100197CH   LINE      CODE     ---       #313
      0100197CH   LINE      CODE     ---       #314
      010019A3H   LINE      CODE     ---       #315
      010019D7H   LINE      CODE     ---       #316
      01001A03H   LINE      CODE     ---       #317
      01001A37H   LINE      CODE     ---       #318
      ---         BLOCKEND  ---      ---       LVL=0

      01002ADAH   BLOCK     CODE     ---       LVL=0
      01002ADAH   LINE      CODE     ---       #320
      01002ADAH   LINE      CODE     ---       #321
      01002B01H   LINE      CODE     ---       #322
      01002B35H   LINE      CODE     ---       #323
      ---         BLOCKEND  ---      ---       LVL=0

      01003B5DH   BLOCK     CODE     ---       LVL=0
      01003B5DH   LINE      CODE     ---       #325
      01003B5DH   LINE      CODE     ---       #326
      01003B5DH   LINE      CODE     ---       #327
      ---         BLOCKEND  ---      ---       LVL=0

      010031B7H   BLOCK     CODE     ---       LVL=0
      010031B7H   LINE      CODE     ---       #329
      010031B7H   LINE      CODE     ---       #330
      010031B7H   LINE      CODE     ---       #331
      010031DEH   LINE      CODE     ---       #332
      ---         BLOCKEND  ---      ---       LVL=0

      010023BCH   BLOCK     CODE     ---       LVL=0
      010023BCH   LINE      CODE     ---       #335
      010023BCH   LINE      CODE     ---       #336
      010023BCH   LINE      CODE     ---       #337
      010023E3H   LINE      CODE     ---       #338
      01002417H   LINE      CODE     ---       #339
      0100244BH   LINE      CODE     ---       #340
      ---         BLOCKEND  ---      ---       LVL=0

      01003208H   BLOCK     CODE     ---       LVL=0
      01003208H   LINE      CODE     ---       #342
      01003208H   LINE      CODE     ---       #343
      01003208H   LINE      CODE     ---       #344
      0100322FH   LINE      CODE     ---       #345
      ---         BLOCKEND  ---      ---       LVL=0

      01003B87H   BLOCK     CODE     ---       LVL=0
      01003B87H   LINE      CODE     ---       #347
      01003B87H   LINE      CODE     ---       #348
      01003B87H   LINE      CODE     ---       #349
      ---         BLOCKEND  ---      ---       LVL=0

      01002E2DH   BLOCK     CODE     ---       LVL=0
      01002E2DH   LINE      CODE     ---       #351
      01002E2DH   LINE      CODE     ---       #352
      01002E2DH   LINE      CODE     ---       #353
      01002E59H   LINE      CODE     ---       #354
      ---         BLOCKEND  ---      ---       LVL=0

      01002D79H   BLOCK     CODE     ---       LVL=0
      01002D79H   LINE      CODE     ---       #356
LX51 LINKER/LOCATER V4.66.93.0                                                        07/16/2024  15:06:14  PAGE 56


      01002D79H   LINE      CODE     ---       #357
      01002D79H   LINE      CODE     ---       #358
      01002DADH   LINE      CODE     ---       #359
      ---         BLOCKEND  ---      ---       LVL=0

      01000F8FH   BLOCK     CODE     ---       LVL=0
      01000F8FH   LINE      CODE     ---       #361
      01000F8FH   LINE      CODE     ---       #362
      01000F8FH   LINE      CODE     ---       #363
      01000FC3H   LINE      CODE     ---       #364
      01000FF7H   LINE      CODE     ---       #365
      01001023H   LINE      CODE     ---       #366
      01001057H   LINE      CODE     ---       #367
      ---         BLOCKEND  ---      ---       LVL=0

      01003473H   BLOCK     CODE     ---       LVL=0
      01003473H   LINE      CODE     ---       #369
      01003473H   LINE      CODE     ---       #370
      01003473H   LINE      CODE     ---       #371
      01003492H   LINE      CODE     ---       #372
      ---         BLOCKEND  ---      ---       LVL=0

      01002725H   BLOCK     CODE     ---       LVL=0
      01002725H   LINE      CODE     ---       #374
      01002725H   LINE      CODE     ---       #375
      01002725H   LINE      CODE     ---       #376
      01002759H   LINE      CODE     ---       #377
      0100278DH   LINE      CODE     ---       #378
      ---         BLOCKEND  ---      ---       LVL=0

      010039C0H   BLOCK     CODE     ---       LVL=0
      010039C0H   LINE      CODE     ---       #380
      010039C0H   LINE      CODE     ---       #381
      010039C0H   LINE      CODE     ---       #382
      ---         BLOCKEND  ---      ---       LVL=0

      01001A47H   BLOCK     CODE     ---       LVL=0
      01001A47H   LINE      CODE     ---       #384
      01001A47H   LINE      CODE     ---       #385
      01001A47H   LINE      CODE     ---       #386
      01001A7BH   LINE      CODE     ---       #387
      01001AAFH   LINE      CODE     ---       #388
      01001ADBH   LINE      CODE     ---       #389
      ---         BLOCKEND  ---      ---       LVL=0

      010027BCH   BLOCK     CODE     ---       LVL=0
      010027BCH   LINE      CODE     ---       #391
      010027BCH   LINE      CODE     ---       #392
      010027BCH   LINE      CODE     ---       #393
      010027E3H   LINE      CODE     ---       #394
      01002817H   LINE      CODE     ---       #395
      ---         BLOCKEND  ---      ---       LVL=0

      010034BCH   BLOCK     CODE     ---       LVL=0
      010034BCH   LINE      CODE     ---       #397
      010034BCH   LINE      CODE     ---       #398
      010034BCH   LINE      CODE     ---       #399
      010034DBH   LINE      CODE     ---       #400
      ---         BLOCKEND  ---      ---       LVL=0

      01001B12H   BLOCK     CODE     ---       LVL=0
      01001B12H   LINE      CODE     ---       #402
      01001B12H   LINE      CODE     ---       #403
      01001B12H   LINE      CODE     ---       #404
      01001B46H   LINE      CODE     ---       #405
LX51 LINKER/LOCATER V4.66.93.0                                                        07/16/2024  15:06:14  PAGE 57


      01001B7AH   LINE      CODE     ---       #406
      01001BA6H   LINE      CODE     ---       #407
      ---         BLOCKEND  ---      ---       LVL=0

      010025DAH   BLOCK     CODE     ---       LVL=0
      010025DAH   LINE      CODE     ---       #409
      010025DAH   LINE      CODE     ---       #410
      010025DAH   LINE      CODE     ---       #411
      01002601H   LINE      CODE     ---       #412
      01002635H   LINE      CODE     ---       #413
      01002661H   LINE      CODE     ---       #414
      ---         BLOCKEND  ---      ---       LVL=0

      01000026H   BLOCK     CODE     ---       LVL=0
      01000026H   LINE      CODE     ---       #416
      01000026H   LINE      CODE     ---       #417
      01000026H   LINE      CODE     ---       #418
      ---         BLOCKEND  ---      ---       LVL=0

      01001BDDH   BLOCK     CODE     ---       LVL=0
      01001BDDH   LINE      CODE     ---       #420
      01001BDDH   LINE      CODE     ---       #421
      01001BDDH   LINE      CODE     ---       #422
      01001C04H   LINE      CODE     ---       #423
      01001C38H   LINE      CODE     ---       #424
      01001C64H   LINE      CODE     ---       #425
      01001C98H   LINE      CODE     ---       #426
      ---         BLOCKEND  ---      ---       LVL=0

      01003505H   BLOCK     CODE     ---       LVL=0
      01003505H   LINE      CODE     ---       #428
      01003505H   LINE      CODE     ---       #429
      01003505H   LINE      CODE     ---       #430
      01003524H   LINE      CODE     ---       #431
      ---         BLOCKEND  ---      ---       LVL=0

      01001067H   BLOCK     CODE     ---       LVL=0
      01001067H   LINE      CODE     ---       #433
      01001067H   LINE      CODE     ---       #434
      01001067H   LINE      CODE     ---       #435
      0100109BH   LINE      CODE     ---       #436
      010010CFH   LINE      CODE     ---       #437
      010010FBH   LINE      CODE     ---       #438
      0100112FH   LINE      CODE     ---       #439
      ---         BLOCKEND  ---      ---       LVL=0

      0100113FH   BLOCK     CODE     ---       LVL=0
      0100113FH   LINE      CODE     ---       #441
      0100113FH   LINE      CODE     ---       #442
      0100113FH   LINE      CODE     ---       #443
      01001173H   LINE      CODE     ---       #444
      010011A7H   LINE      CODE     ---       #445
      010011D3H   LINE      CODE     ---       #446
      01001207H   LINE      CODE     ---       #447
      ---         BLOCKEND  ---      ---       LVL=0

      01000A67H   BLOCK     CODE     ---       LVL=0
      01000A67H   LINE      CODE     ---       #449
      01000A67H   LINE      CODE     ---       #450
      01000A67H   LINE      CODE     ---       #451
      01000A9BH   LINE      CODE     ---       #452
      01000ACFH   LINE      CODE     ---       #453
      01000B03H   LINE      CODE     ---       #454
      01000B37H   LINE      CODE     ---       #455
      ---         BLOCKEND  ---      ---       LVL=0
LX51 LINKER/LOCATER V4.66.93.0                                                        07/16/2024  15:06:14  PAGE 58



      0100354EH   BLOCK     CODE     ---       LVL=0
      0100354EH   LINE      CODE     ---       #457
      0100354EH   LINE      CODE     ---       #458
      0100354EH   LINE      CODE     ---       #459
      0100356DH   LINE      CODE     ---       #460
      ---         BLOCKEND  ---      ---       LVL=0

      01001217H   BLOCK     CODE     ---       LVL=0
      01001217H   LINE      CODE     ---       #462
      01001217H   LINE      CODE     ---       #463
      01001217H   LINE      CODE     ---       #464
      0100124BH   LINE      CODE     ---       #465
      0100127FH   LINE      CODE     ---       #466
      010012ABH   LINE      CODE     ---       #467
      010012DFH   LINE      CODE     ---       #468
      ---         BLOCKEND  ---      ---       LVL=0

      01003597H   BLOCK     CODE     ---       LVL=0
      01003597H   LINE      CODE     ---       #470
      01003597H   LINE      CODE     ---       #471
      01003597H   LINE      CODE     ---       #472
      010035B6H   LINE      CODE     ---       #473
      ---         BLOCKEND  ---      ---       LVL=0

      01001CA8H   BLOCK     CODE     ---       LVL=0
      01001CA8H   LINE      CODE     ---       #475
      01001CA8H   LINE      CODE     ---       #476
      01001CA8H   LINE      CODE     ---       #477
      01001CCFH   LINE      CODE     ---       #478
      01001D03H   LINE      CODE     ---       #479
      01001D2FH   LINE      CODE     ---       #480
      01001D63H   LINE      CODE     ---       #481
      ---         BLOCKEND  ---      ---       LVL=0

      01001D73H   BLOCK     CODE     ---       LVL=0
      01001D73H   LINE      CODE     ---       #483
      01001D73H   LINE      CODE     ---       #484
      01001D73H   LINE      CODE     ---       #485
      01001D9AH   LINE      CODE     ---       #486
      01001DCEH   LINE      CODE     ---       #487
      01001DFAH   LINE      CODE     ---       #488
      01001E2EH   LINE      CODE     ---       #489
      ---         BLOCKEND  ---      ---       LVL=0

      01001E3EH   BLOCK     CODE     ---       LVL=0
      01001E3EH   LINE      CODE     ---       #492
      01001E3EH   LINE      CODE     ---       #493
      01001E3EH   LINE      CODE     ---       #494
      01001E65H   LINE      CODE     ---       #495
      01001E99H   LINE      CODE     ---       #496
      01001EC5H   LINE      CODE     ---       #497
      01001EF9H   LINE      CODE     ---       #498
      ---         BLOCKEND  ---      ---       LVL=0

      01001F09H   BLOCK     CODE     ---       LVL=0
      01001F09H   LINE      CODE     ---       #500
      01001F09H   LINE      CODE     ---       #501
      01001F09H   LINE      CODE     ---       #502
      01001F30H   LINE      CODE     ---       #503
      01001F64H   LINE      CODE     ---       #504
      01001F90H   LINE      CODE     ---       #505
      01001FC4H   LINE      CODE     ---       #506
      ---         BLOCKEND  ---      ---       LVL=0

LX51 LINKER/LOCATER V4.66.93.0                                                        07/16/2024  15:06:14  PAGE 59


      01001FD4H   BLOCK     CODE     ---       LVL=0
      01001FD4H   LINE      CODE     ---       #508
      01001FD4H   LINE      CODE     ---       #509
      01001FD4H   LINE      CODE     ---       #510
      01001FFBH   LINE      CODE     ---       #511
      0100202FH   LINE      CODE     ---       #512
      0100205BH   LINE      CODE     ---       #513
      0100208FH   LINE      CODE     ---       #514
      ---         BLOCKEND  ---      ---       LVL=0

      01003349H   BLOCK     CODE     ---       LVL=0
      01003349H   LINE      CODE     ---       #516
      01003349H   LINE      CODE     ---       #517
      01003349H   LINE      CODE     ---       #518
      0100336CH   LINE      CODE     ---       #519
      ---         BLOCKEND  ---      ---       LVL=0

      01003C27H   BLOCK     CODE     ---       LVL=0
      01003C27H   LINE      CODE     ---       #521
      01003C27H   LINE      CODE     ---       #522
      01003C27H   LINE      CODE     ---       #523
      ---         BLOCKEND  ---      ---       LVL=0

      010012EFH   BLOCK     CODE     ---       LVL=0
      010012EFH   LINE      CODE     ---       #525
      010012EFH   LINE      CODE     ---       #526
      010012EFH   LINE      CODE     ---       #527
      01001323H   LINE      CODE     ---       #528
      01001357H   LINE      CODE     ---       #529
      01001383H   LINE      CODE     ---       #530
      010013B7H   LINE      CODE     ---       #531
      ---         BLOCKEND  ---      ---       LVL=0

      010013C7H   BLOCK     CODE     ---       LVL=0
      010013C7H   LINE      CODE     ---       #533
      010013C7H   LINE      CODE     ---       #534
      010013C7H   LINE      CODE     ---       #535
      010013FBH   LINE      CODE     ---       #536
      0100142FH   LINE      CODE     ---       #537
      0100145BH   LINE      CODE     ---       #538
      0100148FH   LINE      CODE     ---       #539
      ---         BLOCKEND  ---      ---       LVL=0

      010035E0H   BLOCK     CODE     ---       LVL=0
      010035E0H   LINE      CODE     ---       #541
      010035E0H   LINE      CODE     ---       #542
      010035E0H   LINE      CODE     ---       #543
      010035FFH   LINE      CODE     ---       #544
      ---         BLOCKEND  ---      ---       LVL=0

      01003CE8H   BLOCK     CODE     ---       LVL=0
      01003CE8H   LINE      CODE     ---       #546
      01003CE8H   LINE      CODE     ---       #547
      01003CE8H   LINE      CODE     ---       #548
      ---         BLOCKEND  ---      ---       LVL=0

      01003E54H   BLOCK     CODE     ---       LVL=0
      01003E54H   LINE      CODE     ---       #550
      01003E54H   LINE      CODE     ---       #551
      01003E54H   LINE      CODE     ---       #552
      ---         BLOCKEND  ---      ---       LVL=0

      01002E83H   BLOCK     CODE     ---       LVL=0
      01002E83H   LINE      CODE     ---       #554
      01002E83H   LINE      CODE     ---       #555
LX51 LINKER/LOCATER V4.66.93.0                                                        07/16/2024  15:06:14  PAGE 60


      01002E83H   LINE      CODE     ---       #556
      01002EAFH   LINE      CODE     ---       #557
      ---         BLOCKEND  ---      ---       LVL=0

      0100149FH   BLOCK     CODE     ---       LVL=0
      0100149FH   LINE      CODE     ---       #559
      0100149FH   LINE      CODE     ---       #560
      0100149FH   LINE      CODE     ---       #561
      010014D3H   LINE      CODE     ---       #562
      01001507H   LINE      CODE     ---       #563
      01001533H   LINE      CODE     ---       #564
      01001567H   LINE      CODE     ---       #565
      ---         BLOCKEND  ---      ---       LVL=0

      01003C49H   BLOCK     CODE     ---       LVL=0
      01003C49H   LINE      CODE     ---       #567
      01003C49H   LINE      CODE     ---       #568
      01003C49H   LINE      CODE     ---       #569
      ---         BLOCKEND  ---      ---       LVL=0

      01003D05H   BLOCK     CODE     ---       LVL=0
      01003D05H   LINE      CODE     ---       #571
      01003D05H   LINE      CODE     ---       #572
      01003D05H   LINE      CODE     ---       #573
      ---         BLOCKEND  ---      ---       LVL=0

      01003BB1H   BLOCK     CODE     ---       LVL=0
      01003BB1H   LINE      CODE     ---       #575
      01003BB1H   LINE      CODE     ---       #576
      01003BB1H   LINE      CODE     ---       #577
      ---         BLOCKEND  ---      ---       LVL=0

      01003D22H   BLOCK     CODE     ---       LVL=0
      01003D22H   LINE      CODE     ---       #579
      01003D22H   LINE      CODE     ---       #580
      01003D22H   LINE      CODE     ---       #581
      ---         BLOCKEND  ---      ---       LVL=0

      01000B47H   BLOCK     CODE     ---       LVL=0
      01000B47H   LINE      CODE     ---       #583
      01000B47H   LINE      CODE     ---       #584
      01000B47H   LINE      CODE     ---       #585
      01000B7BH   LINE      CODE     ---       #586
      01000BAFH   LINE      CODE     ---       #587
      01000BBCH   LINE      CODE     ---       #588
      01000BE3H   LINE      CODE     ---       #589
      01000C17H   LINE      CODE     ---       #590
      ---         BLOCKEND  ---      ---       LVL=0

      0100216AH   BLOCK     CODE     ---       LVL=0
      0100216AH   LINE      CODE     ---       #592
      0100216AH   LINE      CODE     ---       #593
      0100216AH   LINE      CODE     ---       #594
      0100219EH   LINE      CODE     ---       #595
      010021D2H   LINE      CODE     ---       #596
      010021DFH   LINE      CODE     ---       #597
      01002206H   LINE      CODE     ---       #598
      ---         BLOCKEND  ---      ---       LVL=0

      01003629H   BLOCK     CODE     ---       LVL=0
      01003629H   LINE      CODE     ---       #600
      01003629H   LINE      CODE     ---       #601
      01003629H   LINE      CODE     ---       #602
      01003648H   LINE      CODE     ---       #603
      ---         BLOCKEND  ---      ---       LVL=0
LX51 LINKER/LOCATER V4.66.93.0                                                        07/16/2024  15:06:14  PAGE 61



      01002230H   BLOCK     CODE     ---       LVL=0
      01002230H   LINE      CODE     ---       #605
      01002230H   LINE      CODE     ---       #606
      01002230H   LINE      CODE     ---       #607
      01002264H   LINE      CODE     ---       #608
      01002298H   LINE      CODE     ---       #609
      010022A5H   LINE      CODE     ---       #610
      010022CCH   LINE      CODE     ---       #611
      ---         BLOCKEND  ---      ---       LVL=0

      010022F6H   BLOCK     CODE     ---       LVL=0
      010022F6H   LINE      CODE     ---       #613
      010022F6H   LINE      CODE     ---       #614
      010022F6H   LINE      CODE     ---       #615
      0100232AH   LINE      CODE     ---       #616
      0100235EH   LINE      CODE     ---       #617
      0100236BH   LINE      CODE     ---       #618
      01002392H   LINE      CODE     ---       #619
      ---         BLOCKEND  ---      ---       LVL=0

      01001577H   BLOCK     CODE     ---       LVL=0
      01001577H   LINE      CODE     ---       #621
      01001577H   LINE      CODE     ---       #622
      01001577H   LINE      CODE     ---       #623
      0100159EH   LINE      CODE     ---       #624
      010015D2H   LINE      CODE     ---       #625
      01001606H   LINE      CODE     ---       #626
      0100163AH   LINE      CODE     ---       #627
      ---         BLOCKEND  ---      ---       LVL=0

      01003259H   BLOCK     CODE     ---       LVL=0
      01003259H   LINE      CODE     ---       #629
      01003259H   LINE      CODE     ---       #630
      01003259H   LINE      CODE     ---       #631
      01003280H   LINE      CODE     ---       #632
      ---         BLOCKEND  ---      ---       LVL=0

      01003D3FH   BLOCK     CODE     ---       LVL=0
      01003D3FH   LINE      CODE     ---       #634
      01003D3FH   LINE      CODE     ---       #635
      01003D3FH   LINE      CODE     ---       #636
      ---         BLOCKEND  ---      ---       LVL=0

      01003672H   BLOCK     CODE     ---       LVL=0
      01003672H   LINE      CODE     ---       #638
      01003672H   LINE      CODE     ---       #639
      01003672H   LINE      CODE     ---       #640
      01003691H   LINE      CODE     ---       #641
      ---         BLOCKEND  ---      ---       LVL=0

      010032AAH   BLOCK     CODE     ---       LVL=0
      010032AAH   LINE      CODE     ---       #643
      010032AAH   LINE      CODE     ---       #644
      010032AAH   LINE      CODE     ---       #645
      010032D1H   LINE      CODE     ---       #646
      ---         BLOCKEND  ---      ---       LVL=0

      01003D5CH   BLOCK     CODE     ---       LVL=0
      01003D5CH   LINE      CODE     ---       #648
      01003D5CH   LINE      CODE     ---       #649
      01003D5CH   LINE      CODE     ---       #650
      ---         BLOCKEND  ---      ---       LVL=0

      01002ED9H   BLOCK     CODE     ---       LVL=0
LX51 LINKER/LOCATER V4.66.93.0                                                        07/16/2024  15:06:14  PAGE 62


      01002ED9H   LINE      CODE     ---       #652
      01002ED9H   LINE      CODE     ---       #653
      01002ED9H   LINE      CODE     ---       #654
      01002F05H   LINE      CODE     ---       #655
      ---         BLOCKEND  ---      ---       LVL=0

      010036BBH   BLOCK     CODE     ---       LVL=0
      010036BBH   LINE      CODE     ---       #657
      010036BBH   LINE      CODE     ---       #658
      010036BBH   LINE      CODE     ---       #659
      010036DAH   LINE      CODE     ---       #660
      ---         BLOCKEND  ---      ---       LVL=0

      0100209FH   BLOCK     CODE     ---       LVL=0
      0100209FH   LINE      CODE     ---       #662
      0100209FH   LINE      CODE     ---       #663
      0100209FH   LINE      CODE     ---       #664
      010020C6H   LINE      CODE     ---       #665
      010020FAH   LINE      CODE     ---       #666
      01002126H   LINE      CODE     ---       #667
      0100215AH   LINE      CODE     ---       #668
      ---         BLOCKEND  ---      ---       LVL=0

      01000096H   BLOCK     CODE     ---       LVL=0
      01000096H   LINE      CODE     ---       #670
      01000096H   LINE      CODE     ---       #671
      01000096H   LINE      CODE     ---       #673
      010000A0H   LINE      CODE     ---       #674
      010000ADH   LINE      CODE     ---       #675
      010000B7H   LINE      CODE     ---       #676
      010000C1H   LINE      CODE     ---       #677
      010000CBH   LINE      CODE     ---       #678
      010000D5H   LINE      CODE     ---       #679
      010000E6H   LINE      CODE     ---       #680
      010000F0H   LINE      CODE     ---       #681
      010000FAH   LINE      CODE     ---       #682
      01000104H   LINE      CODE     ---       #683
      0100010EH   LINE      CODE     ---       #684
      01000118H   LINE      CODE     ---       #685
      01000129H   LINE      CODE     ---       #686
      01000133H   LINE      CODE     ---       #690
      0100013DH   LINE      CODE     ---       #691
      01000147H   LINE      CODE     ---       #692
      01000158H   LINE      CODE     ---       #693
      01000162H   LINE      CODE     ---       #694
      0100016CH   LINE      CODE     ---       #695
      01000176H   LINE      CODE     ---       #696
      01000180H   LINE      CODE     ---       #697
      0100018AH   LINE      CODE     ---       #698
      01000194H   LINE      CODE     ---       #699
      010001A5H   LINE      CODE     ---       #700
      010001A8H   LINE      CODE     ---       #701
      010001B2H   LINE      CODE     ---       #702
      010001BCH   LINE      CODE     ---       #703
      010001C6H   LINE      CODE     ---       #704
      010001D0H   LINE      CODE     ---       #705
      010001DAH   LINE      CODE     ---       #706
      010001E4H   LINE      CODE     ---       #710
      010001EEH   LINE      CODE     ---       #711
      010001F8H   LINE      CODE     ---       #712
      01000202H   LINE      CODE     ---       #713
      0100020CH   LINE      CODE     ---       #714
      01000216H   LINE      CODE     ---       #715
      01000220H   LINE      CODE     ---       #716
      0100022AH   LINE      CODE     ---       #717
LX51 LINKER/LOCATER V4.66.93.0                                                        07/16/2024  15:06:14  PAGE 63


      01000234H   LINE      CODE     ---       #718
      0100023EH   LINE      CODE     ---       #719
      01000248H   LINE      CODE     ---       #720
      01000252H   LINE      CODE     ---       #721
      0100025CH   LINE      CODE     ---       #722
      01000266H   LINE      CODE     ---       #723
      01000270H   LINE      CODE     ---       #724
      0100027AH   LINE      CODE     ---       #725
      01000284H   LINE      CODE     ---       #726
      0100028EH   LINE      CODE     ---       #727
      01000298H   LINE      CODE     ---       #728
      010002A2H   LINE      CODE     ---       #729
      010002ACH   LINE      CODE     ---       #730
      010002B6H   LINE      CODE     ---       #731
      010002C0H   LINE      CODE     ---       #732
      010002CAH   LINE      CODE     ---       #733
      010002D4H   LINE      CODE     ---       #734
      010002DEH   LINE      CODE     ---       #735
      010002E8H   LINE      CODE     ---       #736
      010002EBH   LINE      CODE     ---       #737
      010002EEH   LINE      CODE     ---       #738
      010002F1H   LINE      CODE     ---       #739
      010002F4H   LINE      CODE     ---       #740
      010002F7H   LINE      CODE     ---       #741
      01000301H   LINE      CODE     ---       #742
      0100030BH   LINE      CODE     ---       #743
      01000315H   LINE      CODE     ---       #744
      0100031FH   LINE      CODE     ---       #745
      01000329H   LINE      CODE     ---       #746
      01000333H   LINE      CODE     ---       #747
      0100033DH   LINE      CODE     ---       #748
      01000347H   LINE      CODE     ---       #749
      01000351H   LINE      CODE     ---       #750
      0100035BH   LINE      CODE     ---       #751
      01000365H   LINE      CODE     ---       #752
      0100036FH   LINE      CODE     ---       #753
      ---         BLOCKEND  ---      ---       LVL=0

      01002475H   BLOCK     CODE     ---       LVL=0
      01002475H   LINE      CODE     ---       #755
      01002475H   LINE      CODE     ---       #756
      01002475H   LINE      CODE     ---       #757
      0100247FH   LINE      CODE     ---       #758
      01002489H   LINE      CODE     ---       #759
      01002493H   LINE      CODE     ---       #760
      0100249DH   LINE      CODE     ---       #761
      010024A7H   LINE      CODE     ---       #762
      010024B1H   LINE      CODE     ---       #763
      010024BBH   LINE      CODE     ---       #764
      010024C5H   LINE      CODE     ---       #765
      010024CFH   LINE      CODE     ---       #766
      010024D9H   LINE      CODE     ---       #767
      010024E3H   LINE      CODE     ---       #768
      010024EDH   LINE      CODE     ---       #769
      010024F7H   LINE      CODE     ---       #770
      01002501H   LINE      CODE     ---       #771
      0100250BH   LINE      CODE     ---       #772
      01002515H   LINE      CODE     ---       #773
      0100251FH   LINE      CODE     ---       #774
      ---         BLOCKEND  ---      ---       LVL=0

      01000379H   BLOCK     CODE     ---       LVL=0
      01000379H   LINE      CODE     ---       #779
      01000379H   LINE      CODE     ---       #780
      01000379H   LINE      CODE     ---       #782
LX51 LINKER/LOCATER V4.66.93.0                                                        07/16/2024  15:06:14  PAGE 64


      01000383H   LINE      CODE     ---       #783
      0100038DH   LINE      CODE     ---       #784
      01000397H   LINE      CODE     ---       #785
      010003A1H   LINE      CODE     ---       #786
      010003ABH   LINE      CODE     ---       #787
      010003B5H   LINE      CODE     ---       #788
      010003BFH   LINE      CODE     ---       #789
      010003C9H   LINE      CODE     ---       #790
      010003D3H   LINE      CODE     ---       #791
      010003E1H   LINE      CODE     ---       #793
      010003EBH   LINE      CODE     ---       #794
      010003F8H   LINE      CODE     ---       #795
      01000402H   LINE      CODE     ---       #796
      0100040CH   LINE      CODE     ---       #797
      01000416H   LINE      CODE     ---       #799
      01000420H   LINE      CODE     ---       #800
      0100043FH   LINE      CODE     ---       #801
      01000457H   LINE      CODE     ---       #802
      01000461H   LINE      CODE     ---       #803
      0100046BH   LINE      CODE     ---       #804
      01000475H   LINE      CODE     ---       #805
      0100047FH   LINE      CODE     ---       #806
      01000489H   LINE      CODE     ---       #807
      01000493H   LINE      CODE     ---       #808
      0100049DH   LINE      CODE     ---       #809
      010004A7H   LINE      CODE     ---       #810
      010004B8H   LINE      CODE     ---       #811
      010004C2H   LINE      CODE     ---       #812
      010004CCH   LINE      CODE     ---       #813
      010004D6H   LINE      CODE     ---       #814
      010004E0H   LINE      CODE     ---       #815
      010004EAH   LINE      CODE     ---       #816
      010004FBH   LINE      CODE     ---       #817
      0100050CH   LINE      CODE     ---       #818
      01000516H   LINE      CODE     ---       #819
      01000520H   LINE      CODE     ---       #820
      0100052AH   LINE      CODE     ---       #821
      01000534H   LINE      CODE     ---       #822
      0100053EH   LINE      CODE     ---       #823
      01000548H   LINE      CODE     ---       #824
      01000552H   LINE      CODE     ---       #825
      0100055CH   LINE      CODE     ---       #826
      01000566H   LINE      CODE     ---       #827
      01000570H   LINE      CODE     ---       #828
      0100057AH   LINE      CODE     ---       #829
      01000584H   LINE      CODE     ---       #830
      0100058EH   LINE      CODE     ---       #831
      01000598H   LINE      CODE     ---       #832
      010005A2H   LINE      CODE     ---       #833
      010005ACH   LINE      CODE     ---       #834
      010005B6H   LINE      CODE     ---       #835
      010005C0H   LINE      CODE     ---       #836
      010005CAH   LINE      CODE     ---       #837
      010005D4H   LINE      CODE     ---       #838
      010005FAH   LINE      CODE     ---       #839
      ---         BLOCKEND  ---      ---       LVL=0

      01003E90H   BLOCK     CODE     ---       LVL=0
      01003E90H   LINE      CODE     ---       #844
      01003E90H   LINE      CODE     ---       #845
      01003E90H   LINE      CODE     ---       #846
      01003E93H   LINE      CODE     ---       #847
      01003E96H   LINE      CODE     ---       #848
      01003E99H   LINE      CODE     ---       #849
      01003E9CH   LINE      CODE     ---       #850
LX51 LINKER/LOCATER V4.66.93.0                                                        07/16/2024  15:06:14  PAGE 65


      01003E9FH   LINE      CODE     ---       #851
      ---         BLOCKEND  ---      ---       LVL=0

      ---         MODULE    ---      ---       ASR
      010028DFH   PUBLIC    CODE     ---       human_computer
      01003DE9H   PUBLIC    CODE     ---       ASR_end
      01003DCDH   PUBLIC    CODE     ---       start_repeatedly_Speech_Recognition
      01003DB1H   PUBLIC    CODE     ---       ASR_init2
      01003D95H   PUBLIC    CODE     ---       ASR_init1
      01003D79H   PUBLIC    CODE     ---       ASR_init
      01003ECDH   PUBLIC    CODE     ---       Delay3500ms
      01003EBEH   PUBLIC    CODE     ---       Delay6000ms
      01003F1CH   PUBLIC    CODE     ---       Delay10000ms
      01003EAFH   PUBLIC    CODE     ---       Delay5000ms
      01003EA0H   PUBLIC    CODE     ---       Delay2500ms
      000000D8H.2 SFRSYM    DATA     BIT       CCF2
      00000092H   SFRSYM    DATA     BYTE      P1M0
      00000093H   SFRSYM    DATA     BYTE      P0M1
      000000E0H.7 SFRSYM    DATA     BIT       ACC7
      00000096H   SFRSYM    DATA     BYTE      P2M0
      00000091H   SFRSYM    DATA     BYTE      P1M1
      00000080H   SFRSYM    DATA     BYTE      P0
      000000B2H   SFRSYM    DATA     BYTE      P3M0
      00000095H   SFRSYM    DATA     BYTE      P2M1
      00000090H   SFRSYM    DATA     BYTE      P1
      000000B4H   SFRSYM    DATA     BYTE      P4M0
      000000B1H   SFRSYM    DATA     BYTE      P3M1
      000000A0H   SFRSYM    DATA     BYTE      P2
      000000ABH   SFRSYM    DATA     BYTE      WKTCH
      000000CAH   SFRSYM    DATA     BYTE      P5M0
      000000B3H   SFRSYM    DATA     BYTE      P4M1
      000000B0H   SFRSYM    DATA     BYTE      P3
      000000B0H.4 SFRSYM    DATA     BIT       T0
      000000CCH   SFRSYM    DATA     BYTE      P6M0
      000000C9H   SFRSYM    DATA     BYTE      P5M1
      000000C0H   SFRSYM    DATA     BYTE      P4
      000000D0H.6 SFRSYM    DATA     BIT       AC
      000000B0H.5 SFRSYM    DATA     BIT       CLKOUT0
      000000B0H.5 SFRSYM    DATA     BIT       T1
      000000C6H   SFRSYM    DATA     BYTE      ISP_TRIG
      000000F6H   SFRSYM    DATA     BYTE      PWMIF
      000000E2H   SFRSYM    DATA     BYTE      P7M0
      000000CBH   SFRSYM    DATA     BYTE      P6M1
      000000C8H   SFRSYM    DATA     BYTE      P5
      000000B0H.4 SFRSYM    DATA     BIT       CLKOUT1
      000000A0H.4 SFRSYM    DATA     BIT       SPI_SS_2
      000000A8H.7 SFRSYM    DATA     BIT       EA
      000000E1H   SFRSYM    DATA     BYTE      P7M1
      000000E8H   SFRSYM    DATA     BYTE      P6
      000000C8H.4 SFRSYM    DATA     BIT       SPI_SS_3
      00000090H.4 SFRSYM    DATA     BIT       SPI_MISO
      00000090H.3 SFRSYM    DATA     BIT       SPI_MOSI
      00000090H.1 SFRSYM    DATA     BIT       CCP0
      000000AAH   SFRSYM    DATA     BYTE      WKTCL
      000000F8H   SFRSYM    DATA     BYTE      P7
      00000090H.0 SFRSYM    DATA     BIT       CCP1
      000000CEH   SFRSYM    DATA     BYTE      SPCTL
      000000B0H.7 SFRSYM    DATA     BIT       CCP2
      000000D8H.7 SFRSYM    DATA     BIT       CF
      000000F5H   SFRSYM    DATA     BYTE      PWMCR
      000000F9H   SFRSYM    DATA     BYTE      CH
      000000A2H   SFRSYM    DATA     BYTE      P_SW1
      000000BAH   SFRSYM    DATA     BYTE      P_SW2
      000000A0H.1 SFRSYM    DATA     BIT       SPI_SCLK_2
      000000A8H.5 SFRSYM    DATA     BIT       EADC
LX51 LINKER/LOCATER V4.66.93.0                                                        07/16/2024  15:06:14  PAGE 66


      000000A8H   SFRSYM    DATA     BYTE      IE
      000000C0H.3 SFRSYM    DATA     BIT       SPI_SCLK_3
      000000E9H   SFRSYM    DATA     BYTE      CL
      000000C5H   SFRSYM    DATA     BYTE      IAP_CMD
      000000FAH   SFRSYM    DATA     BYTE      CCAP0H
      000000FBH   SFRSYM    DATA     BYTE      CCAP1H
      000000FCH   SFRSYM    DATA     BYTE      CCAP2H
      000000B6H   SFRSYM    DATA     BYTE      IPH2
      000000BDH   SFRSYM    DATA     BYTE      ADC_RES
      000000EAH   SFRSYM    DATA     BYTE      CCAP0L
      000000D8H.6 SFRSYM    DATA     BIT       CR
      000000B0H.7 SFRSYM    DATA     BIT       RD
      000000F7H   SFRSYM    DATA     BYTE      PWMFDCR
      000000EBH   SFRSYM    DATA     BYTE      CCAP1L
      000000DAH   SFRSYM    DATA     BYTE      CCAPM0
      000000ECH   SFRSYM    DATA     BYTE      CCAP2L
      000000DBH   SFRSYM    DATA     BYTE      CCAPM1
      000000DCH   SFRSYM    DATA     BYTE      CCAPM2
      000000A8H.4 SFRSYM    DATA     BIT       ES
      000000A0H.2 SFRSYM    DATA     BIT       SPI_MISO_2
      000000A0H.3 SFRSYM    DATA     BIT       SPI_MOSI_2
      000000B8H.5 SFRSYM    DATA     BIT       PADC
      000000B8H   SFRSYM    DATA     BYTE      IP
      000000C0H.1 SFRSYM    DATA     BIT       SPI_MISO_3
      000000C0H.0 SFRSYM    DATA     BIT       SPI_MOSI_3
      00000098H.0 SFRSYM    DATA     BIT       RI
      000000B0H.2 SFRSYM    DATA     BIT       INT0
      000000D0H.7 SFRSYM    DATA     BIT       CY
      000000B0H.3 SFRSYM    DATA     BIT       INT1
      00000098H.1 SFRSYM    DATA     BIT       TI
      00000097H   SFRSYM    DATA     BYTE      CLK_DIV
      000000C3H   SFRSYM    DATA     BYTE      IAP_ADDRH
      00000090H.0 SFRSYM    DATA     BIT       RXD2
      000000C5H   SFRSYM    DATA     BYTE      ISP_CMD
      00000090H.1 SFRSYM    DATA     BIT       TXD2
      000000B8H.4 SFRSYM    DATA     BIT       PS
      00000081H   SFRSYM    DATA     BYTE      SP
      000000D9H   SFRSYM    DATA     BYTE      CMOD
      000000D8H   SFRSYM    DATA     BYTE      CCON
      000000C4H   SFRSYM    DATA     BYTE      IAP_ADDRL
      000000B8H.7 SFRSYM    DATA     BIT       PPCA
      000000D0H.2 SFRSYM    DATA     BIT       OV
      000000E6H   SFRSYM    DATA     BYTE      CMPCR1
      000000B0H.6 SFRSYM    DATA     BIT       WR
      000000E7H   SFRSYM    DATA     BYTE      CMPCR2
      000000A8H.6 SFRSYM    DATA     BIT       ELVD
      00000080H.0 SFRSYM    DATA     BIT       P00
      000000BCH   SFRSYM    DATA     BYTE      ADC_CONTR
      00000099H   SFRSYM    DATA     BYTE      SBUF
      00000087H   SFRSYM    DATA     BYTE      PCON
      00000090H.0 SFRSYM    DATA     BIT       P10
      00000080H.1 SFRSYM    DATA     BIT       P01
      000000C3H   SFRSYM    DATA     BYTE      ISP_ADDRH
      000000A0H.0 SFRSYM    DATA     BIT       P20
      00000090H.1 SFRSYM    DATA     BIT       P11
      00000080H.2 SFRSYM    DATA     BIT       P02
      000000B0H.0 SFRSYM    DATA     BIT       P30
      000000A0H.1 SFRSYM    DATA     BIT       P21
      00000090H.2 SFRSYM    DATA     BIT       P12
      00000080H.3 SFRSYM    DATA     BIT       P03
      00000098H   SFRSYM    DATA     BYTE      SCON
      0000008FH   SFRSYM    DATA     BYTE      WAKE_CLKO
      000000C0H.0 SFRSYM    DATA     BIT       P40
      000000B0H.1 SFRSYM    DATA     BIT       P31
      000000A0H.2 SFRSYM    DATA     BIT       P22
LX51 LINKER/LOCATER V4.66.93.0                                                        07/16/2024  15:06:14  PAGE 67


      00000090H.3 SFRSYM    DATA     BIT       P13
      00000080H.4 SFRSYM    DATA     BIT       P04
      00000089H   SFRSYM    DATA     BYTE      TMOD
      00000088H   SFRSYM    DATA     BYTE      TCON
      000000C8H.0 SFRSYM    DATA     BIT       P50
      000000C0H.1 SFRSYM    DATA     BIT       P41
      000000B0H.2 SFRSYM    DATA     BIT       P32
      000000A0H.3 SFRSYM    DATA     BIT       P23
      00000090H.4 SFRSYM    DATA     BIT       P14
      00000080H.5 SFRSYM    DATA     BIT       P05
      000000C4H   SFRSYM    DATA     BYTE      ISP_ADDRL
      000000E8H.0 SFRSYM    DATA     BIT       P60
      000000C8H.1 SFRSYM    DATA     BIT       P51
      000000C0H.2 SFRSYM    DATA     BIT       P42
      000000B0H.3 SFRSYM    DATA     BIT       P33
      000000A0H.4 SFRSYM    DATA     BIT       P24
      00000090H.5 SFRSYM    DATA     BIT       P15
      00000080H.6 SFRSYM    DATA     BIT       P06
      000000B8H.6 SFRSYM    DATA     BIT       PLVD
      000000F8H.0 SFRSYM    DATA     BIT       P70
      000000E8H.1 SFRSYM    DATA     BIT       P61
      000000C8H.2 SFRSYM    DATA     BIT       P52
      000000C0H.3 SFRSYM    DATA     BIT       P43
      000000B0H.4 SFRSYM    DATA     BIT       P34
      000000A0H.5 SFRSYM    DATA     BIT       P25
      00000090H.6 SFRSYM    DATA     BIT       P16
      00000080H.7 SFRSYM    DATA     BIT       P07
      000000F8H.1 SFRSYM    DATA     BIT       P71
      000000E8H.2 SFRSYM    DATA     BIT       P62
      000000C8H.3 SFRSYM    DATA     BIT       P53
      000000C0H.4 SFRSYM    DATA     BIT       P44
      000000B0H.5 SFRSYM    DATA     BIT       P35
      000000A0H.6 SFRSYM    DATA     BIT       P26
      00000090H.7 SFRSYM    DATA     BIT       P17
      000000F8H.2 SFRSYM    DATA     BIT       P72
      000000E8H.3 SFRSYM    DATA     BIT       P63
      000000C8H.4 SFRSYM    DATA     BIT       P54
      000000C0H.5 SFRSYM    DATA     BIT       P45
      000000B0H.6 SFRSYM    DATA     BIT       P36
      000000A0H.7 SFRSYM    DATA     BIT       P27
      000000F8H.3 SFRSYM    DATA     BIT       P73
      000000E8H.4 SFRSYM    DATA     BIT       P64
      000000C8H.5 SFRSYM    DATA     BIT       P55
      000000C0H.6 SFRSYM    DATA     BIT       P46
      000000B0H.7 SFRSYM    DATA     BIT       P37
      000000F8H.4 SFRSYM    DATA     BIT       P74
      000000E8H.5 SFRSYM    DATA     BIT       P65
      000000C8H.6 SFRSYM    DATA     BIT       P56
      000000C0H.7 SFRSYM    DATA     BIT       P47
      000000F8H.5 SFRSYM    DATA     BIT       P75
      000000E8H.6 SFRSYM    DATA     BIT       P66
      000000C8H.7 SFRSYM    DATA     BIT       P57
      000000F8H.6 SFRSYM    DATA     BIT       P76
      000000E8H.7 SFRSYM    DATA     BIT       P67
      00000088H.1 SFRSYM    DATA     BIT       IE0
      000000A1H   SFRSYM    DATA     BYTE      BUS_SPEED
      000000F8H.7 SFRSYM    DATA     BIT       P77
      00000088H.3 SFRSYM    DATA     BIT       IE1
      000000AFH   SFRSYM    DATA     BYTE      IE2
      0000008EH   SFRSYM    DATA     BYTE      AUXR
      000000F0H   SFRSYM    DATA     BYTE      B
      000000C7H   SFRSYM    DATA     BYTE      IAP_CONTR
      000000F1H   SFRSYM    DATA     BYTE      PWMCFG
      000000E0H   SFRSYM    DATA     BYTE      ACC
      000000A8H.1 SFRSYM    DATA     BIT       ET0
LX51 LINKER/LOCATER V4.66.93.0                                                        07/16/2024  15:06:14  PAGE 68


      00000088H.5 SFRSYM    DATA     BIT       TF0
      000000A8H.3 SFRSYM    DATA     BIT       ET1
      0000008CH   SFRSYM    DATA     BYTE      RL_TH0
      00000088H.7 SFRSYM    DATA     BIT       TF1
      000000B5H   SFRSYM    DATA     BYTE      IP2
      0000008DH   SFRSYM    DATA     BYTE      RL_TH1
      00000098H.2 SFRSYM    DATA     BIT       RB8
      0000008CH   SFRSYM    DATA     BYTE      TH0
      000000D6H   SFRSYM    DATA     BYTE      RL_T2H
      0000008DH   SFRSYM    DATA     BYTE      TH1
      00000088H.0 SFRSYM    DATA     BIT       IT0
      000000A8H.0 SFRSYM    DATA     BIT       EX0
      000000D4H   SFRSYM    DATA     BYTE      RL_T3H
      000000D6H   SFRSYM    DATA     BYTE      TH2
      00000098H.3 SFRSYM    DATA     BIT       TB8
      000000D6H   SFRSYM    DATA     BYTE      T2H
      00000088H.2 SFRSYM    DATA     BIT       IT1
      000000A8H.2 SFRSYM    DATA     BIT       EX1
      000000D2H   SFRSYM    DATA     BYTE      RL_T4H
      000000D4H   SFRSYM    DATA     BYTE      TH3
      0000008AH   SFRSYM    DATA     BYTE      RL_TL0
      000000D4H   SFRSYM    DATA     BYTE      T3H
      000000D0H.0 SFRSYM    DATA     BIT       P
      000000D2H   SFRSYM    DATA     BYTE      TH4
      0000008BH   SFRSYM    DATA     BYTE      RL_TL1
      00000098H.7 SFRSYM    DATA     BIT       SM0
      000000D2H   SFRSYM    DATA     BYTE      T4H
      0000008AH   SFRSYM    DATA     BYTE      TL0
      000000D7H   SFRSYM    DATA     BYTE      RL_T2L
      00000098H.6 SFRSYM    DATA     BIT       SM1
      0000008BH   SFRSYM    DATA     BYTE      TL1
      000000D5H   SFRSYM    DATA     BYTE      RL_T3L
      000000D7H   SFRSYM    DATA     BYTE      TL2
      00000098H.5 SFRSYM    DATA     BIT       SM2
      000000D7H   SFRSYM    DATA     BYTE      T2L
      000000D3H   SFRSYM    DATA     BYTE      RL_T4L
      000000D5H   SFRSYM    DATA     BYTE      TL3
      000000D5H   SFRSYM    DATA     BYTE      T3L
      000000D3H   SFRSYM    DATA     BYTE      TL4
      000000D3H   SFRSYM    DATA     BYTE      T4L
      000000B8H.1 SFRSYM    DATA     BIT       PT0
      000000C7H   SFRSYM    DATA     BYTE      ISP_CONTR
      000000B8H.3 SFRSYM    DATA     BIT       PT1
      000000D0H.3 SFRSYM    DATA     BIT       RS0
      000000C2H   SFRSYM    DATA     BYTE      IAP_DATA
      00000088H.4 SFRSYM    DATA     BIT       TR0
      000000D0H.4 SFRSYM    DATA     BIT       RS1
      00000088H.6 SFRSYM    DATA     BIT       TR1
      000000C1H   SFRSYM    DATA     BYTE      WDT_CONTR
      000000B8H.0 SFRSYM    DATA     BIT       PX0
      000000B8H.2 SFRSYM    DATA     BIT       PX1
      000000F2H   SFRSYM    DATA     BYTE      PCA_PWM0
      000000F3H   SFRSYM    DATA     BYTE      PCA_PWM1
      000000F4H   SFRSYM    DATA     BYTE      PCA_PWM2
      0000009DH   SFRSYM    DATA     BYTE      P1ASF
      00000083H   SFRSYM    DATA     BYTE      DPH
      000000D1H   SFRSYM    DATA     BYTE      T3T4M
      000000D1H   SFRSYM    DATA     BYTE      T4T3M
      000000BEH   SFRSYM    DATA     BYTE      ADC_RESL
      00000082H   SFRSYM    DATA     BYTE      DPL
      000000B7H   SFRSYM    DATA     BYTE      IPH
      000000CDH   SFRSYM    DATA     BYTE      SPSTAT
      0000009BH   SFRSYM    DATA     BYTE      S2BUF
      00000097H   SFRSYM    DATA     BYTE      PCON2
      000000ADH   SFRSYM    DATA     BYTE      S3BUF
LX51 LINKER/LOCATER V4.66.93.0                                                        07/16/2024  15:06:14  PAGE 69


      00000085H   SFRSYM    DATA     BYTE      S4BUF
      00000098H.4 SFRSYM    DATA     BIT       REN
      0000009AH   SFRSYM    DATA     BYTE      S2CON
      000000ACH   SFRSYM    DATA     BYTE      S3CON
      000000C2H   SFRSYM    DATA     BYTE      ISP_DATA
      00000084H   SFRSYM    DATA     BYTE      S4CON
      000000B9H   SFRSYM    DATA     BYTE      SADEN
      000000B0H.0 SFRSYM    DATA     BIT       RXD
      000000A9H   SFRSYM    DATA     BYTE      SADDR
      000000B0H.1 SFRSYM    DATA     BIT       TXD
      000000F0H.0 SFRSYM    DATA     BIT       B0
      000000C6H   SFRSYM    DATA     BYTE      IAP_TRIG
      000000A2H   SFRSYM    DATA     BYTE      AUXR1
      000000F0H.1 SFRSYM    DATA     BIT       B1
      00000090H.2 SFRSYM    DATA     BIT       SPI_SS
      0000008FH   SFRSYM    DATA     BYTE      AUXR2
      000000F0H.2 SFRSYM    DATA     BIT       B2
      000000F0H.3 SFRSYM    DATA     BIT       B3
      000000D0H.5 SFRSYM    DATA     BIT       F0
      000000F0H.4 SFRSYM    DATA     BIT       B4
      0000008FH   SFRSYM    DATA     BYTE      INT_CLKO
      000000D0H.1 SFRSYM    DATA     BIT       F1
      000000F0H.5 SFRSYM    DATA     BIT       B5
      000000F0H.6 SFRSYM    DATA     BIT       B6
      000000E0H.0 SFRSYM    DATA     BIT       ACC0
      000000F0H.7 SFRSYM    DATA     BIT       B7
      000000E0H.1 SFRSYM    DATA     BIT       ACC1
      000000E0H.2 SFRSYM    DATA     BIT       ACC2
      000000D0H   SFRSYM    DATA     BYTE      PSW
      000000E0H.3 SFRSYM    DATA     BIT       ACC3
      00000090H.5 SFRSYM    DATA     BIT       SPI_SCLK
      000000E0H.4 SFRSYM    DATA     BIT       ACC4
      000000D8H.0 SFRSYM    DATA     BIT       CCF0
      000000E0H.5 SFRSYM    DATA     BIT       ACC5
      000000D8H.1 SFRSYM    DATA     BIT       CCF1
      000000CFH   SFRSYM    DATA     BYTE      SPDAT
      00000094H   SFRSYM    DATA     BYTE      P0M0
      000000E0H.6 SFRSYM    DATA     BIT       ACC6

      01003EA0H   BLOCK     CODE     ---       LVL=0
      01003EA0H   BLOCK     CODE     NEAR LAB  LVL=1
      00000007H   SYMBOL    DATA     BYTE      i
      00000006H   SYMBOL    DATA     BYTE      j
      00000005H   SYMBOL    DATA     BYTE      k
      ---         BLOCKEND  ---      ---       LVL=1
      01003EA0H   LINE      CODE     ---       #8
      01003EA0H   LINE      CODE     ---       #9
      01003EA0H   LINE      CODE     ---       #12
      01003EA1H   LINE      CODE     ---       #13
      01003EA2H   LINE      CODE     ---       #14
      01003EA4H   LINE      CODE     ---       #15
      01003EA6H   LINE      CODE     ---       #16
      01003EA8H   LINE      CODE     ---       #18
      01003EA8H   LINE      CODE     ---       #20
      01003EA8H   LINE      CODE     ---       #21
      01003EAAH   LINE      CODE     ---       #22
      01003EACH   LINE      CODE     ---       #23
      01003EAEH   LINE      CODE     ---       #24
      ---         BLOCKEND  ---      ---       LVL=0

      01003EAFH   BLOCK     CODE     ---       LVL=0
      01003EAFH   BLOCK     CODE     NEAR LAB  LVL=1
      00000007H   SYMBOL    DATA     BYTE      i
      00000006H   SYMBOL    DATA     BYTE      j
      00000005H   SYMBOL    DATA     BYTE      k
LX51 LINKER/LOCATER V4.66.93.0                                                        07/16/2024  15:06:14  PAGE 70


      ---         BLOCKEND  ---      ---       LVL=1
      01003EAFH   LINE      CODE     ---       #25
      01003EAFH   LINE      CODE     ---       #26
      01003EAFH   LINE      CODE     ---       #29
      01003EB0H   LINE      CODE     ---       #30
      01003EB1H   LINE      CODE     ---       #31
      01003EB3H   LINE      CODE     ---       #32
      01003EB5H   LINE      CODE     ---       #33
      01003EB7H   LINE      CODE     ---       #35
      01003EB7H   LINE      CODE     ---       #37
      01003EB7H   LINE      CODE     ---       #38
      01003EB9H   LINE      CODE     ---       #39
      01003EBBH   LINE      CODE     ---       #40
      01003EBDH   LINE      CODE     ---       #41
      ---         BLOCKEND  ---      ---       LVL=0

      01003F1CH   BLOCK     CODE     ---       LVL=0
      01003F1CH   LINE      CODE     ---       #42
      01003F1CH   LINE      CODE     ---       #43
      01003F1CH   LINE      CODE     ---       #44
      01003F1FH   LINE      CODE     ---       #45
      ---         BLOCKEND  ---      ---       LVL=0

      01003EBEH   BLOCK     CODE     ---       LVL=0
      01003EBEH   BLOCK     CODE     NEAR LAB  LVL=1
      00000007H   SYMBOL    DATA     BYTE      i
      00000006H   SYMBOL    DATA     BYTE      j
      00000005H   SYMBOL    DATA     BYTE      k
      ---         BLOCKEND  ---      ---       LVL=1
      01003EBEH   LINE      CODE     ---       #47
      01003EBEH   LINE      CODE     ---       #48
      01003EBEH   LINE      CODE     ---       #51
      01003EBFH   LINE      CODE     ---       #52
      01003EC0H   LINE      CODE     ---       #53
      01003EC2H   LINE      CODE     ---       #54
      01003EC4H   LINE      CODE     ---       #55
      01003EC6H   LINE      CODE     ---       #57
      01003EC6H   LINE      CODE     ---       #59
      01003EC6H   LINE      CODE     ---       #60
      01003EC8H   LINE      CODE     ---       #61
      01003ECAH   LINE      CODE     ---       #62
      01003ECCH   LINE      CODE     ---       #63
      ---         BLOCKEND  ---      ---       LVL=0

      01003ECDH   BLOCK     CODE     ---       LVL=0
      01003ECDH   BLOCK     CODE     NEAR LAB  LVL=1
      00000007H   SYMBOL    DATA     BYTE      i
      00000006H   SYMBOL    DATA     BYTE      j
      00000005H   SYMBOL    DATA     BYTE      k
      ---         BLOCKEND  ---      ---       LVL=1
      01003ECDH   LINE      CODE     ---       #64
      01003ECDH   LINE      CODE     ---       #65
      01003ECDH   LINE      CODE     ---       #68
      01003ECEH   LINE      CODE     ---       #69
      01003ECFH   LINE      CODE     ---       #70
      01003ED1H   LINE      CODE     ---       #71
      01003ED3H   LINE      CODE     ---       #72
      01003ED5H   LINE      CODE     ---       #74
      01003ED5H   LINE      CODE     ---       #76
      01003ED5H   LINE      CODE     ---       #77
      01003ED7H   LINE      CODE     ---       #78
      01003ED9H   LINE      CODE     ---       #79
      01003EDBH   LINE      CODE     ---       #80
      ---         BLOCKEND  ---      ---       LVL=0

LX51 LINKER/LOCATER V4.66.93.0                                                        07/16/2024  15:06:14  PAGE 71


      01003D79H   BLOCK     CODE     ---       LVL=0
      01003D79H   LINE      CODE     ---       #83
      01003D79H   LINE      CODE     ---       #84
      01003D7CH   LINE      CODE     ---       #85
      01003D81H   LINE      CODE     ---       #86
      01003D86H   LINE      CODE     ---       #87
      01003D8BH   LINE      CODE     ---       #88
      01003D8EH   LINE      CODE     ---       #89
      ---         BLOCKEND  ---      ---       LVL=0

      01003D95H   BLOCK     CODE     ---       LVL=0
      01003D95H   LINE      CODE     ---       #91
      01003D95H   LINE      CODE     ---       #92
      01003D98H   LINE      CODE     ---       #93
      01003D9DH   LINE      CODE     ---       #94
      01003DA2H   LINE      CODE     ---       #95
      01003DA7H   LINE      CODE     ---       #96
      01003DAAH   LINE      CODE     ---       #97
      ---         BLOCKEND  ---      ---       LVL=0

      01003DB1H   BLOCK     CODE     ---       LVL=0
      01003DB1H   LINE      CODE     ---       #99
      01003DB1H   LINE      CODE     ---       #100
      01003DB4H   LINE      CODE     ---       #101
      01003DB9H   LINE      CODE     ---       #102
      01003DBEH   LINE      CODE     ---       #103
      01003DC3H   LINE      CODE     ---       #104
      01003DC6H   LINE      CODE     ---       #105
      ---         BLOCKEND  ---      ---       LVL=0

      01003DCDH   BLOCK     CODE     ---       LVL=0
      01003DCDH   LINE      CODE     ---       #108
      01003DCDH   LINE      CODE     ---       #109
      01003DCDH   LINE      CODE     ---       #110
      01003DD0H   LINE      CODE     ---       #111
      01003DD5H   LINE      CODE     ---       #112
      01003DDAH   LINE      CODE     ---       #113
      01003DDFH   LINE      CODE     ---       #114
      01003DE2H   LINE      CODE     ---       #115
      ---         BLOCKEND  ---      ---       LVL=0

      01003DE9H   BLOCK     CODE     ---       LVL=0
      01003DE9H   LINE      CODE     ---       #118
      01003DE9H   LINE      CODE     ---       #119
      01003DECH   LINE      CODE     ---       #120
      01003DF1H   LINE      CODE     ---       #121
      01003DF6H   LINE      CODE     ---       #122
      01003DFBH   LINE      CODE     ---       #123
      01003DFEH   LINE      CODE     ---       #124
      ---         BLOCKEND  ---      ---       LVL=0

      010028DFH   BLOCK     CODE     ---       LVL=0
      010028DFH   LINE      CODE     ---       #127
      010028DFH   LINE      CODE     ---       #128
      010028DFH   LINE      CODE     ---       #129
      010028E2H   LINE      CODE     ---       #130
      010028E5H   LINE      CODE     ---       #131
      010028E8H   LINE      CODE     ---       #132
      010028EBH   LINE      CODE     ---       #133
      010028F1H   LINE      CODE     ---       #134
      010028F1H   LINE      CODE     ---       #135
      010028F7H   LINE      CODE     ---       #136
      010028F7H   LINE      CODE     ---       #137
      010028FEH   LINE      CODE     ---       #138
      01002900H   LINE      CODE     ---       #139
LX51 LINKER/LOCATER V4.66.93.0                                                        07/16/2024  15:06:14  PAGE 72


      01002908H   LINE      CODE     ---       #140
      01002910H   LINE      CODE     ---       #141
      01002925H   LINE      CODE     ---       #142
      01002925H   LINE      CODE     ---       #143
      01002928H   LINE      CODE     ---       #144
      0100292BH   LINE      CODE     ---       #145
      0100292BH   LINE      CODE     ---       #146
      0100292DH   LINE      CODE     ---       #147
      01002930H   LINE      CODE     ---       #148
      01002933H   LINE      CODE     ---       #149
      01002933H   LINE      CODE     ---       #150
      01002935H   LINE      CODE     ---       #151
      01002938H   LINE      CODE     ---       #152
      0100293BH   LINE      CODE     ---       #153
      0100293BH   LINE      CODE     ---       #154
      0100293DH   LINE      CODE     ---       #155
      01002940H   LINE      CODE     ---       #156
      01002943H   LINE      CODE     ---       #157
      01002946H   LINE      CODE     ---       #158
      01002948H   LINE      CODE     ---       #159
      0100294BH   LINE      CODE     ---       #160
      0100294EH   LINE      CODE     ---       #161
      01002951H   LINE      CODE     ---       #162
      01002954H   LINE      CODE     ---       #163
      01002954H   LINE      CODE     ---       #164
      01002954H   LINE      CODE     ---       #165
      01002957H   LINE      CODE     ---       #166
      0100295EH   LINE      CODE     ---       #167
      01002960H   LINE      CODE     ---       #168
      01002960H   LINE      CODE     ---       #169
      01002962H   LINE      CODE     ---       #170
      ---         BLOCKEND  ---      ---       LVL=0

      ---         MODULE    ---      ---       ?C_INIT
      0100289AH   PUBLIC    CODE     ---       ?C_START

      ---         MODULE    ---      ---       ?C?CLDPTR
      0100383BH   PUBLIC    CODE     ---       ?C?CLDPTR

      ---         MODULE    ---      ---       ?C?CSTOPTR
      01003854H   PUBLIC    CODE     ---       ?C?CSTOPTR



*** WARNING L57: UNCALLED FUNCTION, IGNORED FOR OVERLAY PROCESS
    NAME:    _SENDSTRINGBYUART3/UART

*** WARNING L57: UNCALLED FUNCTION, IGNORED FOR OVERLAY PROCESS
    NAME:    CLR_BUF3/UART

*** WARNING L57: UNCALLED FUNCTION, IGNORED FOR OVERLAY PROCESS
    NAME:    _SENDSTRINGBYUART4/UART

*** WARNING L57: UNCALLED FUNCTION, IGNORED FOR OVERLAY PROCESS
    NAME:    CLR_BUF4/UART

*** WARNING L57: UNCALLED FUNCTION, IGNORED FOR OVERLAY PROCESS
    NAME:    HUMAN_COMPUTER/ASR

Program Size: data=43.0 xdata=22 const=21 code=16157
LX51 RUN COMPLETE.  5 WARNING(S),  0 ERROR(S)
